
rtthread-stm32f7xx.axf:     file format elf32-littlearm


Disassembly of section .text:

08000000 <_stext>:
 8000000:	200107ec 	.word	0x200107ec
 8000004:	0800fbfd 	.word	0x0800fbfd
 8000008:	08014529 	.word	0x08014529
 800000c:	080002ab 	.word	0x080002ab
 8000010:	0800fc4d 	.word	0x0800fc4d
 8000014:	08014535 	.word	0x08014535
 8000018:	0801453d 	.word	0x0801453d
	...
 800002c:	0800fc4d 	.word	0x0800fc4d
 8000030:	08014545 	.word	0x08014545
 8000034:	00000000 	.word	0x00000000
 8000038:	080001f9 	.word	0x080001f9
 800003c:	0801225d 	.word	0x0801225d
 8000040:	0800fc4d 	.word	0x0800fc4d
 8000044:	0800fc4d 	.word	0x0800fc4d
 8000048:	0800fc4d 	.word	0x0800fc4d
 800004c:	0800fc4d 	.word	0x0800fc4d
 8000050:	0800fc4d 	.word	0x0800fc4d
 8000054:	0800fc4d 	.word	0x0800fc4d
 8000058:	0800fc4d 	.word	0x0800fc4d
 800005c:	0800fc4d 	.word	0x0800fc4d
 8000060:	0800fc4d 	.word	0x0800fc4d
 8000064:	0800fc4d 	.word	0x0800fc4d
 8000068:	0800fc4d 	.word	0x0800fc4d
 800006c:	0800fc4d 	.word	0x0800fc4d
 8000070:	0801425d 	.word	0x0801425d
 8000074:	0800fc4d 	.word	0x0800fc4d
 8000078:	0800fc4d 	.word	0x0800fc4d
 800007c:	0800fc4d 	.word	0x0800fc4d
 8000080:	0800fc4d 	.word	0x0800fc4d
 8000084:	0800fc4d 	.word	0x0800fc4d
 8000088:	08012b85 	.word	0x08012b85
 800008c:	0801192d 	.word	0x0801192d
 8000090:	08011965 	.word	0x08011965
 8000094:	08011989 	.word	0x08011989
 8000098:	08011a81 	.word	0x08011a81
 800009c:	0800fc4d 	.word	0x0800fc4d
 80000a0:	0800fc4d 	.word	0x0800fc4d
 80000a4:	0800fc4d 	.word	0x0800fc4d
 80000a8:	0800fc4d 	.word	0x0800fc4d
 80000ac:	0800fc4d 	.word	0x0800fc4d
 80000b0:	0800fc4d 	.word	0x0800fc4d
 80000b4:	0800fc4d 	.word	0x0800fc4d
 80000b8:	0800fc4d 	.word	0x0800fc4d
 80000bc:	0800fc4d 	.word	0x0800fc4d
 80000c0:	0800fc4d 	.word	0x0800fc4d
 80000c4:	0800fc4d 	.word	0x0800fc4d
 80000c8:	0800fc4d 	.word	0x0800fc4d
 80000cc:	0800fc4d 	.word	0x0800fc4d
 80000d0:	0800fc4d 	.word	0x0800fc4d
 80000d4:	080141b5 	.word	0x080141b5
 80000d8:	0800fc4d 	.word	0x0800fc4d
 80000dc:	08014209 	.word	0x08014209
 80000e0:	0800fc4d 	.word	0x0800fc4d
 80000e4:	0800fc4d 	.word	0x0800fc4d
 80000e8:	0800fc4d 	.word	0x0800fc4d
 80000ec:	08013875 	.word	0x08013875
 80000f0:	08013899 	.word	0x08013899
 80000f4:	0800fc4d 	.word	0x0800fc4d
 80000f8:	0800fc4d 	.word	0x0800fc4d
 80000fc:	0800fc4d 	.word	0x0800fc4d
 8000100:	0800fc4d 	.word	0x0800fc4d
 8000104:	0800fc4d 	.word	0x0800fc4d
 8000108:	080131ad 	.word	0x080131ad
 800010c:	0800fc4d 	.word	0x0800fc4d
 8000110:	0800fc4d 	.word	0x0800fc4d
 8000114:	0800fc4d 	.word	0x0800fc4d
 8000118:	0800fc4d 	.word	0x0800fc4d
 800011c:	0800fc4d 	.word	0x0800fc4d
 8000120:	08013815 	.word	0x08013815
 8000124:	0800fc4d 	.word	0x0800fc4d
 8000128:	0800fc4d 	.word	0x0800fc4d
 800012c:	0800fc4d 	.word	0x0800fc4d
 8000130:	0800fc4d 	.word	0x0800fc4d
 8000134:	0800fc4d 	.word	0x0800fc4d
 8000138:	0800fc4d 	.word	0x0800fc4d
 800013c:	0800fc4d 	.word	0x0800fc4d
 8000140:	0800fc4d 	.word	0x0800fc4d
 8000144:	0800fc4d 	.word	0x0800fc4d
 8000148:	0800fc4d 	.word	0x0800fc4d
 800014c:	0800fc4d 	.word	0x0800fc4d
 8000150:	0800fc4d 	.word	0x0800fc4d
 8000154:	0800fc4d 	.word	0x0800fc4d
 8000158:	0800fc4d 	.word	0x0800fc4d
 800015c:	0800fc4d 	.word	0x0800fc4d
 8000160:	0800fc4d 	.word	0x0800fc4d
 8000164:	0800fc4d 	.word	0x0800fc4d
 8000168:	0800fc4d 	.word	0x0800fc4d
 800016c:	0800fc4d 	.word	0x0800fc4d
 8000170:	0800fc4d 	.word	0x0800fc4d
 8000174:	0800fc4d 	.word	0x0800fc4d
 8000178:	0800fc4d 	.word	0x0800fc4d
 800017c:	00000000 	.word	0x00000000
 8000180:	0800fc4d 	.word	0x0800fc4d
 8000184:	0800fc4d 	.word	0x0800fc4d
 8000188:	0800fc4d 	.word	0x0800fc4d
 800018c:	0800fc4d 	.word	0x0800fc4d
 8000190:	0800fc4d 	.word	0x0800fc4d
 8000194:	0800fc4d 	.word	0x0800fc4d
 8000198:	0800fc4d 	.word	0x0800fc4d
 800019c:	0800fc4d 	.word	0x0800fc4d
 80001a0:	0800fc4d 	.word	0x0800fc4d
 80001a4:	0800fc4d 	.word	0x0800fc4d
 80001a8:	0800fc4d 	.word	0x0800fc4d
 80001ac:	0800fc4d 	.word	0x0800fc4d
 80001b0:	0800fc4d 	.word	0x0800fc4d
 80001b4:	0800fc4d 	.word	0x0800fc4d
 80001b8:	0800fc4d 	.word	0x0800fc4d
 80001bc:	0800fc4d 	.word	0x0800fc4d
 80001c0:	0800fc4d 	.word	0x0800fc4d
 80001c4:	0800fc4d 	.word	0x0800fc4d

080001c8 <mymul>:
.text
.global mymul
mymul:
		//vmul.f64	d0, d0, d1			
		mov pc, lr
 80001c8:	46f7      	mov	pc, lr
	...

080001cc <rt_hw_interrupt_disable>:
 * rt_base_t rt_hw_interrupt_disable();
 */
.global rt_hw_interrupt_disable
.type rt_hw_interrupt_disable, %function
rt_hw_interrupt_disable:
    MRS     r0, PRIMASK
 80001cc:	f3ef 8010 	mrs	r0, PRIMASK
    CPSID   I
 80001d0:	b672      	cpsid	i
    BX      LR
 80001d2:	4770      	bx	lr

080001d4 <rt_hw_interrupt_enable>:
 * void rt_hw_interrupt_enable(rt_base_t level);
 */
.global rt_hw_interrupt_enable
.type rt_hw_interrupt_enable, %function
rt_hw_interrupt_enable:
    MSR     PRIMASK, r0
 80001d4:	f380 8810 	msr	PRIMASK, r0
    BX      LR
 80001d8:	4770      	bx	lr

080001da <rt_hw_context_switch>:
.type rt_hw_context_switch, %function

rt_hw_context_switch_interrupt:
rt_hw_context_switch:
    /* set rt_thread_switch_interrupt_flag to 1 */
    LDR     r2, =rt_thread_switch_interrupt_flag
 80001da:	4a39      	ldr	r2, [pc, #228]	; (80002c0 <HardFault_Handler+0x16>)
    LDR     r3, [r2]
 80001dc:	6813      	ldr	r3, [r2, #0]
    CMP     r3, #1
 80001de:	2b01      	cmp	r3, #1
    BEQ     _reswitch
 80001e0:	d004      	beq.n	80001ec <_reswitch>
    MOV     r3, #1
 80001e2:	f04f 0301 	mov.w	r3, #1
    STR     r3, [r2]
 80001e6:	6013      	str	r3, [r2, #0]

    LDR     r2, =rt_interrupt_from_thread   /* set rt_interrupt_from_thread */
 80001e8:	4a36      	ldr	r2, [pc, #216]	; (80002c4 <HardFault_Handler+0x1a>)
    STR     r0, [r2]
 80001ea:	6010      	str	r0, [r2, #0]

080001ec <_reswitch>:

_reswitch:
    LDR     r2, =rt_interrupt_to_thread     /* set rt_interrupt_to_thread */
 80001ec:	4a36      	ldr	r2, [pc, #216]	; (80002c8 <HardFault_Handler+0x1e>)
    STR     r1, [r2]
 80001ee:	6011      	str	r1, [r2, #0]

    LDR r0, =NVIC_INT_CTRL              /* trigger the PendSV exception (causes context switch) */
 80001f0:	4836      	ldr	r0, [pc, #216]	; (80002cc <HardFault_Handler+0x22>)
    LDR r1, =NVIC_PENDSVSET
 80001f2:	4937      	ldr	r1, [pc, #220]	; (80002d0 <HardFault_Handler+0x26>)
    STR r1, [r0]
 80001f4:	6001      	str	r1, [r0, #0]
    BX  LR
 80001f6:	4770      	bx	lr

080001f8 <PendSV_Handler>:
 */
.global PendSV_Handler
.type PendSV_Handler, %function
PendSV_Handler:
    /* disable interrupt to protect context switch */
    MRS r2, PRIMASK
 80001f8:	f3ef 8210 	mrs	r2, PRIMASK
    CPSID   I
 80001fc:	b672      	cpsid	i

    /* get rt_thread_switch_interrupt_flag */
    LDR r0, =rt_thread_switch_interrupt_flag
 80001fe:	4830      	ldr	r0, [pc, #192]	; (80002c0 <HardFault_Handler+0x16>)
    LDR r1, [r0]
 8000200:	6801      	ldr	r1, [r0, #0]
    CBZ r1, pendsv_exit         /* pendsv already handled */
 8000202:	b321      	cbz	r1, 800024e <pendsv_exit>

    /* clear rt_thread_switch_interrupt_flag to 0 */
    MOV r1, #0x00
 8000204:	f04f 0100 	mov.w	r1, #0
    STR r1, [r0]
 8000208:	6001      	str	r1, [r0, #0]

    LDR r0, =rt_interrupt_from_thread
 800020a:	482e      	ldr	r0, [pc, #184]	; (80002c4 <HardFault_Handler+0x1a>)
    LDR r1, [r0]
 800020c:	6801      	ldr	r1, [r0, #0]
    CBZ r1, switch_to_thread    /* skip register save at the first time */
 800020e:	b191      	cbz	r1, 8000236 <switch_to_thread>

    MRS r1, psp                 /* get from thread stack pointer */
 8000210:	f3ef 8109 	mrs	r1, PSP
    
#if defined (__VFP_FP__) && !defined(__SOFTFP__)
    TST     lr, #0x10           /* if(!EXC_RETURN[4]) */
 8000214:	f01e 0f10 	tst.w	lr, #16
    VSTMDBEQ r1!, {d8 - d15}    /* push FPU register s16~s31 */
 8000218:	bf08      	it	eq
 800021a:	ed21 8b10 	vstmdbeq	r1!, {d8-d15}
#endif
    
    STMFD   r1!, {r4 - r11}     /* push r4 - r11 register */
 800021e:	e921 0ff0 	stmdb	r1!, {r4, r5, r6, r7, r8, r9, sl, fp}

#if defined (__VFP_FP__) && !defined(__SOFTFP__)
    MOV     r4, #0x00           /* flag = 0 */
 8000222:	f04f 0400 	mov.w	r4, #0

    TST     lr, #0x10           /* if(!EXC_RETURN[4]) */
 8000226:	f01e 0f10 	tst.w	lr, #16
    MOVEQ   r4, #0x01           /* flag = 1 */
 800022a:	bf08      	it	eq
 800022c:	2401      	moveq	r4, #1

    STMFD   r1!, {r4}           /* push flag */
 800022e:	f841 4d04 	str.w	r4, [r1, #-4]!
#endif

    LDR r0, [r0]
 8000232:	6800      	ldr	r0, [r0, #0]
    STR r1, [r0]                /* update from thread stack pointer */
 8000234:	6001      	str	r1, [r0, #0]

08000236 <switch_to_thread>:

switch_to_thread:
    LDR r1, =rt_interrupt_to_thread
 8000236:	4924      	ldr	r1, [pc, #144]	; (80002c8 <HardFault_Handler+0x1e>)
    LDR r1, [r1]
 8000238:	6809      	ldr	r1, [r1, #0]
    LDR r1, [r1]                /* load thread stack pointer */
 800023a:	6809      	ldr	r1, [r1, #0]

#if defined (__VFP_FP__) && !defined(__SOFTFP__)
    LDMFD   r1!, {r3}           /* pop flag */
 800023c:	c908      	ldmia	r1!, {r3}
#endif

    LDMFD   r1!, {r4 - r11}     /* pop r4 - r11 register */
 800023e:	e8b1 0ff0 	ldmia.w	r1!, {r4, r5, r6, r7, r8, r9, sl, fp}

#if defined (__VFP_FP__) && !defined(__SOFTFP__)
    CMP     r3,  #0             /* if(flag_r3 != 0) */
 8000242:	2b00      	cmp	r3, #0
    VLDMIANE  r1!, {d8 - d15}   /* pop FPU register s16~s31 */
 8000244:	bf18      	it	ne
 8000246:	ecb1 8b10 	vldmiane	r1!, {d8-d15}
#endif

    MSR psp, r1                 /* update stack pointer */
 800024a:	f381 8809 	msr	PSP, r1

0800024e <pendsv_exit>:

pendsv_exit:
    /* restore interrupt */
    MSR PRIMASK, r2
 800024e:	f382 8810 	msr	PRIMASK, r2

#if defined (__VFP_FP__) && !defined(__SOFTFP__)
    ORR     lr, lr, #0x10       /* lr |=  (1 << 4), clean FPCA. */
 8000252:	f04e 0e10 	orr.w	lr, lr, #16
    CMP     r3,  #0             /* if(flag_r3 != 0) */
 8000256:	2b00      	cmp	r3, #0
    BICNE   lr, lr, #0x10       /* lr &= ~(1 << 4), set FPCA. */
 8000258:	bf18      	it	ne
 800025a:	f02e 0e10 	bicne.w	lr, lr, #16
#endif

    ORR lr, lr, #0x04
 800025e:	f04e 0e04 	orr.w	lr, lr, #4
    BX  lr
 8000262:	4770      	bx	lr

08000264 <rt_hw_context_switch_to>:
 * r0 --> to
 */
.global rt_hw_context_switch_to
.type rt_hw_context_switch_to, %function
rt_hw_context_switch_to:
    LDR r1, =rt_interrupt_to_thread
 8000264:	4918      	ldr	r1, [pc, #96]	; (80002c8 <HardFault_Handler+0x1e>)
    STR r0, [r1]
 8000266:	6008      	str	r0, [r1, #0]

#if defined (__VFP_FP__) && !defined(__SOFTFP__)
    /* CLEAR CONTROL.FPCA */
    MRS     r2, CONTROL         /* read */
 8000268:	f3ef 8214 	mrs	r2, CONTROL
    BIC     r2, #0x04           /* modify */
 800026c:	f022 0204 	bic.w	r2, r2, #4
    MSR     CONTROL, r2         /* write-back */
 8000270:	f382 8814 	msr	CONTROL, r2
#endif

    /* set from thread to 0 */
    LDR r1, =rt_interrupt_from_thread
 8000274:	4913      	ldr	r1, [pc, #76]	; (80002c4 <HardFault_Handler+0x1a>)
    MOV r0, #0x0
 8000276:	f04f 0000 	mov.w	r0, #0
    STR r0, [r1]
 800027a:	6008      	str	r0, [r1, #0]

    /* set interrupt flag to 1 */
    LDR     r1, =rt_thread_switch_interrupt_flag
 800027c:	4910      	ldr	r1, [pc, #64]	; (80002c0 <HardFault_Handler+0x16>)
    MOV     r0, #1
 800027e:	f04f 0001 	mov.w	r0, #1
    STR     r0, [r1]
 8000282:	6008      	str	r0, [r1, #0]

    /* set the PendSV exception priority */
    LDR r0, =NVIC_SYSPRI2
 8000284:	4813      	ldr	r0, [pc, #76]	; (80002d4 <HardFault_Handler+0x2a>)
    LDR r1, =NVIC_PENDSV_PRI
 8000286:	4914      	ldr	r1, [pc, #80]	; (80002d8 <HardFault_Handler+0x2e>)
    LDR.W   r2, [r0,#0x00]       /* read       */
 8000288:	f8d0 2000 	ldr.w	r2, [r0]
    ORR     r1,r1,r2             /* modify     */
 800028c:	ea41 0102 	orr.w	r1, r1, r2
    STR     r1, [r0]             /* write-back */
 8000290:	6001      	str	r1, [r0, #0]

    LDR r0, =NVIC_INT_CTRL      /* trigger the PendSV exception (causes context switch) */
 8000292:	480e      	ldr	r0, [pc, #56]	; (80002cc <HardFault_Handler+0x22>)
    LDR r1, =NVIC_PENDSVSET
 8000294:	490e      	ldr	r1, [pc, #56]	; (80002d0 <HardFault_Handler+0x26>)
    STR r1, [r0]
 8000296:	6001      	str	r1, [r0, #0]

    /* restore MSP */
    LDR     r0, =SCB_VTOR
 8000298:	4810      	ldr	r0, [pc, #64]	; (80002dc <HardFault_Handler+0x32>)
    LDR     r0, [r0]
 800029a:	6800      	ldr	r0, [r0, #0]
    LDR     r0, [r0]
 800029c:	6800      	ldr	r0, [r0, #0]
    NOP
 800029e:	bf00      	nop
    MSR     msp, r0
 80002a0:	f380 8808 	msr	MSP, r0

    CPSIE   I                       /* enable interrupts at processor level */
 80002a4:	b662      	cpsie	i

080002a6 <rt_hw_interrupt_thread_switch>:

/* compatible with old version */
.global rt_hw_interrupt_thread_switch
.type rt_hw_interrupt_thread_switch, %function
rt_hw_interrupt_thread_switch:
    BX  lr
 80002a6:	4770      	bx	lr
    NOP
 80002a8:	bf00      	nop

080002aa <HardFault_Handler>:

.global HardFault_Handler
.type HardFault_Handler, %function
HardFault_Handler:
    /* get current context */
    MRS     r0, psp                 /* get fault thread stack pointer */
 80002aa:	f3ef 8009 	mrs	r0, PSP
    PUSH    {lr}
 80002ae:	b500      	push	{lr}
    BL      rt_hw_hard_fault_exception
 80002b0:	f018 ff2e 	bl	8019110 <rt_hw_hard_fault_exception>
    POP     {lr}
 80002b4:	f85d eb04 	ldr.w	lr, [sp], #4

    ORR     lr, lr, #0x04
 80002b8:	f04e 0e04 	orr.w	lr, lr, #4
    BX      lr
 80002bc:	4770      	bx	lr
 80002be:	0000      	.short	0x0000
.type rt_hw_context_switch, %function

rt_hw_context_switch_interrupt:
rt_hw_context_switch:
    /* set rt_thread_switch_interrupt_flag to 1 */
    LDR     r2, =rt_thread_switch_interrupt_flag
 80002c0:	20012b8c 	.word	0x20012b8c
    CMP     r3, #1
    BEQ     _reswitch
    MOV     r3, #1
    STR     r3, [r2]

    LDR     r2, =rt_interrupt_from_thread   /* set rt_interrupt_from_thread */
 80002c4:	20012b88 	.word	0x20012b88
    STR     r0, [r2]

_reswitch:
    LDR     r2, =rt_interrupt_to_thread     /* set rt_interrupt_to_thread */
 80002c8:	20012b84 	.word	0x20012b84
    STR     r1, [r2]

    LDR r0, =NVIC_INT_CTRL              /* trigger the PendSV exception (causes context switch) */
 80002cc:	e000ed04 	.word	0xe000ed04
    LDR r1, =NVIC_PENDSVSET
 80002d0:	10000000 	.word	0x10000000
    LDR     r1, =rt_thread_switch_interrupt_flag
    MOV     r0, #1
    STR     r0, [r1]

    /* set the PendSV exception priority */
    LDR r0, =NVIC_SYSPRI2
 80002d4:	e000ed20 	.word	0xe000ed20
    LDR r1, =NVIC_PENDSV_PRI
 80002d8:	00ff0000 	.word	0x00ff0000
    LDR r0, =NVIC_INT_CTRL      /* trigger the PendSV exception (causes context switch) */
    LDR r1, =NVIC_PENDSVSET
    STR r1, [r0]

    /* restore MSP */
    LDR     r0, =SCB_VTOR
 80002dc:	e000ed08 	.word	0xe000ed08

080002e0 <memcpy>:
 80002e0:	4684      	mov	ip, r0
 80002e2:	ea41 0300 	orr.w	r3, r1, r0
 80002e6:	f013 0303 	ands.w	r3, r3, #3
 80002ea:	d16d      	bne.n	80003c8 <memcpy+0xe8>
 80002ec:	3a40      	subs	r2, #64	; 0x40
 80002ee:	d341      	bcc.n	8000374 <memcpy+0x94>
 80002f0:	f851 3b04 	ldr.w	r3, [r1], #4
 80002f4:	f840 3b04 	str.w	r3, [r0], #4
 80002f8:	f851 3b04 	ldr.w	r3, [r1], #4
 80002fc:	f840 3b04 	str.w	r3, [r0], #4
 8000300:	f851 3b04 	ldr.w	r3, [r1], #4
 8000304:	f840 3b04 	str.w	r3, [r0], #4
 8000308:	f851 3b04 	ldr.w	r3, [r1], #4
 800030c:	f840 3b04 	str.w	r3, [r0], #4
 8000310:	f851 3b04 	ldr.w	r3, [r1], #4
 8000314:	f840 3b04 	str.w	r3, [r0], #4
 8000318:	f851 3b04 	ldr.w	r3, [r1], #4
 800031c:	f840 3b04 	str.w	r3, [r0], #4
 8000320:	f851 3b04 	ldr.w	r3, [r1], #4
 8000324:	f840 3b04 	str.w	r3, [r0], #4
 8000328:	f851 3b04 	ldr.w	r3, [r1], #4
 800032c:	f840 3b04 	str.w	r3, [r0], #4
 8000330:	f851 3b04 	ldr.w	r3, [r1], #4
 8000334:	f840 3b04 	str.w	r3, [r0], #4
 8000338:	f851 3b04 	ldr.w	r3, [r1], #4
 800033c:	f840 3b04 	str.w	r3, [r0], #4
 8000340:	f851 3b04 	ldr.w	r3, [r1], #4
 8000344:	f840 3b04 	str.w	r3, [r0], #4
 8000348:	f851 3b04 	ldr.w	r3, [r1], #4
 800034c:	f840 3b04 	str.w	r3, [r0], #4
 8000350:	f851 3b04 	ldr.w	r3, [r1], #4
 8000354:	f840 3b04 	str.w	r3, [r0], #4
 8000358:	f851 3b04 	ldr.w	r3, [r1], #4
 800035c:	f840 3b04 	str.w	r3, [r0], #4
 8000360:	f851 3b04 	ldr.w	r3, [r1], #4
 8000364:	f840 3b04 	str.w	r3, [r0], #4
 8000368:	f851 3b04 	ldr.w	r3, [r1], #4
 800036c:	f840 3b04 	str.w	r3, [r0], #4
 8000370:	3a40      	subs	r2, #64	; 0x40
 8000372:	d2bd      	bcs.n	80002f0 <memcpy+0x10>
 8000374:	3230      	adds	r2, #48	; 0x30
 8000376:	d311      	bcc.n	800039c <memcpy+0xbc>
 8000378:	f851 3b04 	ldr.w	r3, [r1], #4
 800037c:	f840 3b04 	str.w	r3, [r0], #4
 8000380:	f851 3b04 	ldr.w	r3, [r1], #4
 8000384:	f840 3b04 	str.w	r3, [r0], #4
 8000388:	f851 3b04 	ldr.w	r3, [r1], #4
 800038c:	f840 3b04 	str.w	r3, [r0], #4
 8000390:	f851 3b04 	ldr.w	r3, [r1], #4
 8000394:	f840 3b04 	str.w	r3, [r0], #4
 8000398:	3a10      	subs	r2, #16
 800039a:	d2ed      	bcs.n	8000378 <memcpy+0x98>
 800039c:	320c      	adds	r2, #12
 800039e:	d305      	bcc.n	80003ac <memcpy+0xcc>
 80003a0:	f851 3b04 	ldr.w	r3, [r1], #4
 80003a4:	f840 3b04 	str.w	r3, [r0], #4
 80003a8:	3a04      	subs	r2, #4
 80003aa:	d2f9      	bcs.n	80003a0 <memcpy+0xc0>
 80003ac:	3204      	adds	r2, #4
 80003ae:	d008      	beq.n	80003c2 <memcpy+0xe2>
 80003b0:	07d2      	lsls	r2, r2, #31
 80003b2:	bf1c      	itt	ne
 80003b4:	f811 3b01 	ldrbne.w	r3, [r1], #1
 80003b8:	f800 3b01 	strbne.w	r3, [r0], #1
 80003bc:	d301      	bcc.n	80003c2 <memcpy+0xe2>
 80003be:	880b      	ldrh	r3, [r1, #0]
 80003c0:	8003      	strh	r3, [r0, #0]
 80003c2:	4660      	mov	r0, ip
 80003c4:	4770      	bx	lr
 80003c6:	bf00      	nop
 80003c8:	2a08      	cmp	r2, #8
 80003ca:	d313      	bcc.n	80003f4 <memcpy+0x114>
 80003cc:	078b      	lsls	r3, r1, #30
 80003ce:	d08d      	beq.n	80002ec <memcpy+0xc>
 80003d0:	f010 0303 	ands.w	r3, r0, #3
 80003d4:	d08a      	beq.n	80002ec <memcpy+0xc>
 80003d6:	f1c3 0304 	rsb	r3, r3, #4
 80003da:	1ad2      	subs	r2, r2, r3
 80003dc:	07db      	lsls	r3, r3, #31
 80003de:	bf1c      	itt	ne
 80003e0:	f811 3b01 	ldrbne.w	r3, [r1], #1
 80003e4:	f800 3b01 	strbne.w	r3, [r0], #1
 80003e8:	d380      	bcc.n	80002ec <memcpy+0xc>
 80003ea:	f831 3b02 	ldrh.w	r3, [r1], #2
 80003ee:	f820 3b02 	strh.w	r3, [r0], #2
 80003f2:	e77b      	b.n	80002ec <memcpy+0xc>
 80003f4:	3a04      	subs	r2, #4
 80003f6:	d3d9      	bcc.n	80003ac <memcpy+0xcc>
 80003f8:	3a01      	subs	r2, #1
 80003fa:	f811 3b01 	ldrb.w	r3, [r1], #1
 80003fe:	f800 3b01 	strb.w	r3, [r0], #1
 8000402:	d2f9      	bcs.n	80003f8 <memcpy+0x118>
 8000404:	780b      	ldrb	r3, [r1, #0]
 8000406:	7003      	strb	r3, [r0, #0]
 8000408:	784b      	ldrb	r3, [r1, #1]
 800040a:	7043      	strb	r3, [r0, #1]
 800040c:	788b      	ldrb	r3, [r1, #2]
 800040e:	7083      	strb	r3, [r0, #2]
 8000410:	4660      	mov	r0, ip
 8000412:	4770      	bx	lr
	...
 8000420:	eba2 0003 	sub.w	r0, r2, r3
 8000424:	4770      	bx	lr
 8000426:	bf00      	nop

08000428 <strcmp>:
 8000428:	7802      	ldrb	r2, [r0, #0]
 800042a:	780b      	ldrb	r3, [r1, #0]
 800042c:	2a01      	cmp	r2, #1
 800042e:	bf28      	it	cs
 8000430:	429a      	cmpcs	r2, r3
 8000432:	d1f5      	bne.n	8000420 <memcpy+0x140>
 8000434:	e96d 4504 	strd	r4, r5, [sp, #-16]!
 8000438:	ea40 0401 	orr.w	r4, r0, r1
 800043c:	e9cd 6702 	strd	r6, r7, [sp, #8]
 8000440:	f06f 0c00 	mvn.w	ip, #0
 8000444:	ea4f 7244 	mov.w	r2, r4, lsl #29
 8000448:	b312      	cbz	r2, 8000490 <strcmp+0x68>
 800044a:	ea80 0401 	eor.w	r4, r0, r1
 800044e:	f014 0f07 	tst.w	r4, #7
 8000452:	d16a      	bne.n	800052a <strcmp+0x102>
 8000454:	f000 0407 	and.w	r4, r0, #7
 8000458:	f020 0007 	bic.w	r0, r0, #7
 800045c:	f004 0503 	and.w	r5, r4, #3
 8000460:	f021 0107 	bic.w	r1, r1, #7
 8000464:	ea4f 05c5 	mov.w	r5, r5, lsl #3
 8000468:	e8f0 2304 	ldrd	r2, r3, [r0], #16
 800046c:	f014 0f04 	tst.w	r4, #4
 8000470:	e8f1 6704 	ldrd	r6, r7, [r1], #16
 8000474:	fa0c f405 	lsl.w	r4, ip, r5
 8000478:	ea62 0204 	orn	r2, r2, r4
 800047c:	ea66 0604 	orn	r6, r6, r4
 8000480:	d00a      	beq.n	8000498 <strcmp+0x70>
 8000482:	ea63 0304 	orn	r3, r3, r4
 8000486:	4662      	mov	r2, ip
 8000488:	ea67 0704 	orn	r7, r7, r4
 800048c:	4666      	mov	r6, ip
 800048e:	e003      	b.n	8000498 <strcmp+0x70>
 8000490:	e8f0 2304 	ldrd	r2, r3, [r0], #16
 8000494:	e8f1 6704 	ldrd	r6, r7, [r1], #16
 8000498:	fa82 f54c 	uadd8	r5, r2, ip
 800049c:	ea82 0406 	eor.w	r4, r2, r6
 80004a0:	faa4 f48c 	sel	r4, r4, ip
 80004a4:	bb6c      	cbnz	r4, 8000502 <strcmp+0xda>
 80004a6:	fa83 f54c 	uadd8	r5, r3, ip
 80004aa:	ea83 0507 	eor.w	r5, r3, r7
 80004ae:	faa5 f58c 	sel	r5, r5, ip
 80004b2:	b995      	cbnz	r5, 80004da <strcmp+0xb2>
 80004b4:	e950 2302 	ldrd	r2, r3, [r0, #-8]
 80004b8:	e951 6702 	ldrd	r6, r7, [r1, #-8]
 80004bc:	fa82 f54c 	uadd8	r5, r2, ip
 80004c0:	ea82 0406 	eor.w	r4, r2, r6
 80004c4:	faa4 f48c 	sel	r4, r4, ip
 80004c8:	fa83 f54c 	uadd8	r5, r3, ip
 80004cc:	ea83 0507 	eor.w	r5, r3, r7
 80004d0:	faa5 f58c 	sel	r5, r5, ip
 80004d4:	4325      	orrs	r5, r4
 80004d6:	d0db      	beq.n	8000490 <strcmp+0x68>
 80004d8:	b99c      	cbnz	r4, 8000502 <strcmp+0xda>
 80004da:	ba2d      	rev	r5, r5
 80004dc:	fab5 f485 	clz	r4, r5
 80004e0:	f024 0407 	bic.w	r4, r4, #7
 80004e4:	fa27 f104 	lsr.w	r1, r7, r4
 80004e8:	e9dd 6702 	ldrd	r6, r7, [sp, #8]
 80004ec:	fa23 f304 	lsr.w	r3, r3, r4
 80004f0:	f003 00ff 	and.w	r0, r3, #255	; 0xff
 80004f4:	f001 01ff 	and.w	r1, r1, #255	; 0xff
 80004f8:	e8fd 4504 	ldrd	r4, r5, [sp], #16
 80004fc:	eba0 0001 	sub.w	r0, r0, r1
 8000500:	4770      	bx	lr
 8000502:	ba24      	rev	r4, r4
 8000504:	fab4 f484 	clz	r4, r4
 8000508:	f024 0407 	bic.w	r4, r4, #7
 800050c:	fa26 f104 	lsr.w	r1, r6, r4
 8000510:	e9dd 6702 	ldrd	r6, r7, [sp, #8]
 8000514:	fa22 f204 	lsr.w	r2, r2, r4
 8000518:	f002 00ff 	and.w	r0, r2, #255	; 0xff
 800051c:	f001 01ff 	and.w	r1, r1, #255	; 0xff
 8000520:	e8fd 4504 	ldrd	r4, r5, [sp], #16
 8000524:	eba0 0001 	sub.w	r0, r0, r1
 8000528:	4770      	bx	lr
 800052a:	f014 0f03 	tst.w	r4, #3
 800052e:	d13c      	bne.n	80005aa <strcmp+0x182>
 8000530:	f010 0403 	ands.w	r4, r0, #3
 8000534:	d128      	bne.n	8000588 <strcmp+0x160>
 8000536:	f850 2b08 	ldr.w	r2, [r0], #8
 800053a:	f851 3b08 	ldr.w	r3, [r1], #8
 800053e:	fa82 f54c 	uadd8	r5, r2, ip
 8000542:	ea82 0503 	eor.w	r5, r2, r3
 8000546:	faa5 f58c 	sel	r5, r5, ip
 800054a:	b95d      	cbnz	r5, 8000564 <strcmp+0x13c>
 800054c:	f850 2c04 	ldr.w	r2, [r0, #-4]
 8000550:	f851 3c04 	ldr.w	r3, [r1, #-4]
 8000554:	fa82 f54c 	uadd8	r5, r2, ip
 8000558:	ea82 0503 	eor.w	r5, r2, r3
 800055c:	faa5 f58c 	sel	r5, r5, ip
 8000560:	2d00      	cmp	r5, #0
 8000562:	d0e8      	beq.n	8000536 <strcmp+0x10e>
 8000564:	ba2d      	rev	r5, r5
 8000566:	fab5 f485 	clz	r4, r5
 800056a:	f024 0407 	bic.w	r4, r4, #7
 800056e:	fa23 f104 	lsr.w	r1, r3, r4
 8000572:	fa22 f204 	lsr.w	r2, r2, r4
 8000576:	f002 00ff 	and.w	r0, r2, #255	; 0xff
 800057a:	f001 01ff 	and.w	r1, r1, #255	; 0xff
 800057e:	e8fd 4504 	ldrd	r4, r5, [sp], #16
 8000582:	eba0 0001 	sub.w	r0, r0, r1
 8000586:	4770      	bx	lr
 8000588:	ea4f 04c4 	mov.w	r4, r4, lsl #3
 800058c:	f020 0003 	bic.w	r0, r0, #3
 8000590:	f850 2b08 	ldr.w	r2, [r0], #8
 8000594:	f021 0103 	bic.w	r1, r1, #3
 8000598:	f851 3b08 	ldr.w	r3, [r1], #8
 800059c:	fa0c f404 	lsl.w	r4, ip, r4
 80005a0:	ea62 0204 	orn	r2, r2, r4
 80005a4:	ea63 0304 	orn	r3, r3, r4
 80005a8:	e7c9      	b.n	800053e <strcmp+0x116>
 80005aa:	f010 0403 	ands.w	r4, r0, #3
 80005ae:	d01a      	beq.n	80005e6 <strcmp+0x1be>
 80005b0:	eba1 0104 	sub.w	r1, r1, r4
 80005b4:	f020 0003 	bic.w	r0, r0, #3
 80005b8:	07e4      	lsls	r4, r4, #31
 80005ba:	f850 2b04 	ldr.w	r2, [r0], #4
 80005be:	d006      	beq.n	80005ce <strcmp+0x1a6>
 80005c0:	d20f      	bcs.n	80005e2 <strcmp+0x1ba>
 80005c2:	788b      	ldrb	r3, [r1, #2]
 80005c4:	fa5f f4a2 	uxtb.w	r4, r2, ror #16
 80005c8:	1ae4      	subs	r4, r4, r3
 80005ca:	d106      	bne.n	80005da <strcmp+0x1b2>
 80005cc:	b12b      	cbz	r3, 80005da <strcmp+0x1b2>
 80005ce:	78cb      	ldrb	r3, [r1, #3]
 80005d0:	fa5f f4b2 	uxtb.w	r4, r2, ror #24
 80005d4:	1ae4      	subs	r4, r4, r3
 80005d6:	d100      	bne.n	80005da <strcmp+0x1b2>
 80005d8:	b91b      	cbnz	r3, 80005e2 <strcmp+0x1ba>
 80005da:	4620      	mov	r0, r4
 80005dc:	f85d 4b10 	ldr.w	r4, [sp], #16
 80005e0:	4770      	bx	lr
 80005e2:	f101 0104 	add.w	r1, r1, #4
 80005e6:	f850 2b04 	ldr.w	r2, [r0], #4
 80005ea:	07cc      	lsls	r4, r1, #31
 80005ec:	f021 0103 	bic.w	r1, r1, #3
 80005f0:	f851 3b04 	ldr.w	r3, [r1], #4
 80005f4:	d848      	bhi.n	8000688 <strcmp+0x260>
 80005f6:	d224      	bcs.n	8000642 <strcmp+0x21a>
 80005f8:	f022 447f 	bic.w	r4, r2, #4278190080	; 0xff000000
 80005fc:	fa82 f54c 	uadd8	r5, r2, ip
 8000600:	ea94 2513 	eors.w	r5, r4, r3, lsr #8
 8000604:	faa5 f58c 	sel	r5, r5, ip
 8000608:	d10a      	bne.n	8000620 <strcmp+0x1f8>
 800060a:	b965      	cbnz	r5, 8000626 <strcmp+0x1fe>
 800060c:	f851 3b04 	ldr.w	r3, [r1], #4
 8000610:	ea84 0402 	eor.w	r4, r4, r2
 8000614:	ebb4 6f03 	cmp.w	r4, r3, lsl #24
 8000618:	d10e      	bne.n	8000638 <strcmp+0x210>
 800061a:	f850 2b04 	ldr.w	r2, [r0], #4
 800061e:	e7eb      	b.n	80005f8 <strcmp+0x1d0>
 8000620:	ea4f 2313 	mov.w	r3, r3, lsr #8
 8000624:	e055      	b.n	80006d2 <strcmp+0x2aa>
 8000626:	f035 457f 	bics.w	r5, r5, #4278190080	; 0xff000000
 800062a:	d14d      	bne.n	80006c8 <strcmp+0x2a0>
 800062c:	7808      	ldrb	r0, [r1, #0]
 800062e:	e8fd 4504 	ldrd	r4, r5, [sp], #16
 8000632:	f1c0 0000 	rsb	r0, r0, #0
 8000636:	4770      	bx	lr
 8000638:	ea4f 6212 	mov.w	r2, r2, lsr #24
 800063c:	f003 03ff 	and.w	r3, r3, #255	; 0xff
 8000640:	e047      	b.n	80006d2 <strcmp+0x2aa>
 8000642:	ea02 441c 	and.w	r4, r2, ip, lsr #16
 8000646:	fa82 f54c 	uadd8	r5, r2, ip
 800064a:	ea94 4513 	eors.w	r5, r4, r3, lsr #16
 800064e:	faa5 f58c 	sel	r5, r5, ip
 8000652:	d10a      	bne.n	800066a <strcmp+0x242>
 8000654:	b965      	cbnz	r5, 8000670 <strcmp+0x248>
 8000656:	f851 3b04 	ldr.w	r3, [r1], #4
 800065a:	ea84 0402 	eor.w	r4, r4, r2
 800065e:	ebb4 4f03 	cmp.w	r4, r3, lsl #16
 8000662:	d10c      	bne.n	800067e <strcmp+0x256>
 8000664:	f850 2b04 	ldr.w	r2, [r0], #4
 8000668:	e7eb      	b.n	8000642 <strcmp+0x21a>
 800066a:	ea4f 4313 	mov.w	r3, r3, lsr #16
 800066e:	e030      	b.n	80006d2 <strcmp+0x2aa>
 8000670:	ea15 451c 	ands.w	r5, r5, ip, lsr #16
 8000674:	d128      	bne.n	80006c8 <strcmp+0x2a0>
 8000676:	880b      	ldrh	r3, [r1, #0]
 8000678:	ea4f 4212 	mov.w	r2, r2, lsr #16
 800067c:	e029      	b.n	80006d2 <strcmp+0x2aa>
 800067e:	ea4f 4212 	mov.w	r2, r2, lsr #16
 8000682:	ea03 431c 	and.w	r3, r3, ip, lsr #16
 8000686:	e024      	b.n	80006d2 <strcmp+0x2aa>
 8000688:	f002 04ff 	and.w	r4, r2, #255	; 0xff
 800068c:	fa82 f54c 	uadd8	r5, r2, ip
 8000690:	ea94 6513 	eors.w	r5, r4, r3, lsr #24
 8000694:	faa5 f58c 	sel	r5, r5, ip
 8000698:	d10a      	bne.n	80006b0 <strcmp+0x288>
 800069a:	b965      	cbnz	r5, 80006b6 <strcmp+0x28e>
 800069c:	f851 3b04 	ldr.w	r3, [r1], #4
 80006a0:	ea84 0402 	eor.w	r4, r4, r2
 80006a4:	ebb4 2f03 	cmp.w	r4, r3, lsl #8
 80006a8:	d109      	bne.n	80006be <strcmp+0x296>
 80006aa:	f850 2b04 	ldr.w	r2, [r0], #4
 80006ae:	e7eb      	b.n	8000688 <strcmp+0x260>
 80006b0:	ea4f 6313 	mov.w	r3, r3, lsr #24
 80006b4:	e00d      	b.n	80006d2 <strcmp+0x2aa>
 80006b6:	f015 0fff 	tst.w	r5, #255	; 0xff
 80006ba:	d105      	bne.n	80006c8 <strcmp+0x2a0>
 80006bc:	680b      	ldr	r3, [r1, #0]
 80006be:	ea4f 2212 	mov.w	r2, r2, lsr #8
 80006c2:	f023 437f 	bic.w	r3, r3, #4278190080	; 0xff000000
 80006c6:	e004      	b.n	80006d2 <strcmp+0x2aa>
 80006c8:	f04f 0000 	mov.w	r0, #0
 80006cc:	e8fd 4504 	ldrd	r4, r5, [sp], #16
 80006d0:	4770      	bx	lr
 80006d2:	ba12      	rev	r2, r2
 80006d4:	ba1b      	rev	r3, r3
 80006d6:	fa82 f44c 	uadd8	r4, r2, ip
 80006da:	ea82 0403 	eor.w	r4, r2, r3
 80006de:	faa4 f58c 	sel	r5, r4, ip
 80006e2:	fab5 f485 	clz	r4, r5
 80006e6:	fa02 f204 	lsl.w	r2, r2, r4
 80006ea:	fa03 f304 	lsl.w	r3, r3, r4
 80006ee:	ea4f 6012 	mov.w	r0, r2, lsr #24
 80006f2:	e8fd 4504 	ldrd	r4, r5, [sp], #16
 80006f6:	eba0 6013 	sub.w	r0, r0, r3, lsr #24
 80006fa:	4770      	bx	lr
 80006fc:	f3af 8000 	nop.w

08000700 <__aeabi_drsub>:
 8000700:	f081 4100 	eor.w	r1, r1, #2147483648	; 0x80000000
 8000704:	e002      	b.n	800070c <__adddf3>
 8000706:	bf00      	nop

08000708 <__aeabi_dsub>:
 8000708:	f083 4300 	eor.w	r3, r3, #2147483648	; 0x80000000

0800070c <__adddf3>:
 800070c:	b530      	push	{r4, r5, lr}
 800070e:	ea4f 0441 	mov.w	r4, r1, lsl #1
 8000712:	ea4f 0543 	mov.w	r5, r3, lsl #1
 8000716:	ea94 0f05 	teq	r4, r5
 800071a:	bf08      	it	eq
 800071c:	ea90 0f02 	teqeq	r0, r2
 8000720:	bf1f      	itttt	ne
 8000722:	ea54 0c00 	orrsne.w	ip, r4, r0
 8000726:	ea55 0c02 	orrsne.w	ip, r5, r2
 800072a:	ea7f 5c64 	mvnsne.w	ip, r4, asr #21
 800072e:	ea7f 5c65 	mvnsne.w	ip, r5, asr #21
 8000732:	f000 80e2 	beq.w	80008fa <__adddf3+0x1ee>
 8000736:	ea4f 5454 	mov.w	r4, r4, lsr #21
 800073a:	ebd4 5555 	rsbs	r5, r4, r5, lsr #21
 800073e:	bfb8      	it	lt
 8000740:	426d      	neglt	r5, r5
 8000742:	dd0c      	ble.n	800075e <__adddf3+0x52>
 8000744:	442c      	add	r4, r5
 8000746:	ea80 0202 	eor.w	r2, r0, r2
 800074a:	ea81 0303 	eor.w	r3, r1, r3
 800074e:	ea82 0000 	eor.w	r0, r2, r0
 8000752:	ea83 0101 	eor.w	r1, r3, r1
 8000756:	ea80 0202 	eor.w	r2, r0, r2
 800075a:	ea81 0303 	eor.w	r3, r1, r3
 800075e:	2d36      	cmp	r5, #54	; 0x36
 8000760:	bf88      	it	hi
 8000762:	bd30      	pophi	{r4, r5, pc}
 8000764:	f011 4f00 	tst.w	r1, #2147483648	; 0x80000000
 8000768:	ea4f 3101 	mov.w	r1, r1, lsl #12
 800076c:	f44f 1c80 	mov.w	ip, #1048576	; 0x100000
 8000770:	ea4c 3111 	orr.w	r1, ip, r1, lsr #12
 8000774:	d002      	beq.n	800077c <__adddf3+0x70>
 8000776:	4240      	negs	r0, r0
 8000778:	eb61 0141 	sbc.w	r1, r1, r1, lsl #1
 800077c:	f013 4f00 	tst.w	r3, #2147483648	; 0x80000000
 8000780:	ea4f 3303 	mov.w	r3, r3, lsl #12
 8000784:	ea4c 3313 	orr.w	r3, ip, r3, lsr #12
 8000788:	d002      	beq.n	8000790 <__adddf3+0x84>
 800078a:	4252      	negs	r2, r2
 800078c:	eb63 0343 	sbc.w	r3, r3, r3, lsl #1
 8000790:	ea94 0f05 	teq	r4, r5
 8000794:	f000 80a7 	beq.w	80008e6 <__adddf3+0x1da>
 8000798:	f1a4 0401 	sub.w	r4, r4, #1
 800079c:	f1d5 0e20 	rsbs	lr, r5, #32
 80007a0:	db0d      	blt.n	80007be <__adddf3+0xb2>
 80007a2:	fa02 fc0e 	lsl.w	ip, r2, lr
 80007a6:	fa22 f205 	lsr.w	r2, r2, r5
 80007aa:	1880      	adds	r0, r0, r2
 80007ac:	f141 0100 	adc.w	r1, r1, #0
 80007b0:	fa03 f20e 	lsl.w	r2, r3, lr
 80007b4:	1880      	adds	r0, r0, r2
 80007b6:	fa43 f305 	asr.w	r3, r3, r5
 80007ba:	4159      	adcs	r1, r3
 80007bc:	e00e      	b.n	80007dc <__adddf3+0xd0>
 80007be:	f1a5 0520 	sub.w	r5, r5, #32
 80007c2:	f10e 0e20 	add.w	lr, lr, #32
 80007c6:	2a01      	cmp	r2, #1
 80007c8:	fa03 fc0e 	lsl.w	ip, r3, lr
 80007cc:	bf28      	it	cs
 80007ce:	f04c 0c02 	orrcs.w	ip, ip, #2
 80007d2:	fa43 f305 	asr.w	r3, r3, r5
 80007d6:	18c0      	adds	r0, r0, r3
 80007d8:	eb51 71e3 	adcs.w	r1, r1, r3, asr #31
 80007dc:	f001 4500 	and.w	r5, r1, #2147483648	; 0x80000000
 80007e0:	d507      	bpl.n	80007f2 <__adddf3+0xe6>
 80007e2:	f04f 0e00 	mov.w	lr, #0
 80007e6:	f1dc 0c00 	rsbs	ip, ip, #0
 80007ea:	eb7e 0000 	sbcs.w	r0, lr, r0
 80007ee:	eb6e 0101 	sbc.w	r1, lr, r1
 80007f2:	f5b1 1f80 	cmp.w	r1, #1048576	; 0x100000
 80007f6:	d31b      	bcc.n	8000830 <__adddf3+0x124>
 80007f8:	f5b1 1f00 	cmp.w	r1, #2097152	; 0x200000
 80007fc:	d30c      	bcc.n	8000818 <__adddf3+0x10c>
 80007fe:	0849      	lsrs	r1, r1, #1
 8000800:	ea5f 0030 	movs.w	r0, r0, rrx
 8000804:	ea4f 0c3c 	mov.w	ip, ip, rrx
 8000808:	f104 0401 	add.w	r4, r4, #1
 800080c:	ea4f 5244 	mov.w	r2, r4, lsl #21
 8000810:	f512 0f80 	cmn.w	r2, #4194304	; 0x400000
 8000814:	f080 809a 	bcs.w	800094c <__adddf3+0x240>
 8000818:	f1bc 4f00 	cmp.w	ip, #2147483648	; 0x80000000
 800081c:	bf08      	it	eq
 800081e:	ea5f 0c50 	movseq.w	ip, r0, lsr #1
 8000822:	f150 0000 	adcs.w	r0, r0, #0
 8000826:	eb41 5104 	adc.w	r1, r1, r4, lsl #20
 800082a:	ea41 0105 	orr.w	r1, r1, r5
 800082e:	bd30      	pop	{r4, r5, pc}
 8000830:	ea5f 0c4c 	movs.w	ip, ip, lsl #1
 8000834:	4140      	adcs	r0, r0
 8000836:	eb41 0101 	adc.w	r1, r1, r1
 800083a:	f411 1f80 	tst.w	r1, #1048576	; 0x100000
 800083e:	f1a4 0401 	sub.w	r4, r4, #1
 8000842:	d1e9      	bne.n	8000818 <__adddf3+0x10c>
 8000844:	f091 0f00 	teq	r1, #0
 8000848:	bf04      	itt	eq
 800084a:	4601      	moveq	r1, r0
 800084c:	2000      	moveq	r0, #0
 800084e:	fab1 f381 	clz	r3, r1
 8000852:	bf08      	it	eq
 8000854:	3320      	addeq	r3, #32
 8000856:	f1a3 030b 	sub.w	r3, r3, #11
 800085a:	f1b3 0220 	subs.w	r2, r3, #32
 800085e:	da0c      	bge.n	800087a <__adddf3+0x16e>
 8000860:	320c      	adds	r2, #12
 8000862:	dd08      	ble.n	8000876 <__adddf3+0x16a>
 8000864:	f102 0c14 	add.w	ip, r2, #20
 8000868:	f1c2 020c 	rsb	r2, r2, #12
 800086c:	fa01 f00c 	lsl.w	r0, r1, ip
 8000870:	fa21 f102 	lsr.w	r1, r1, r2
 8000874:	e00c      	b.n	8000890 <__adddf3+0x184>
 8000876:	f102 0214 	add.w	r2, r2, #20
 800087a:	bfd8      	it	le
 800087c:	f1c2 0c20 	rsble	ip, r2, #32
 8000880:	fa01 f102 	lsl.w	r1, r1, r2
 8000884:	fa20 fc0c 	lsr.w	ip, r0, ip
 8000888:	bfdc      	itt	le
 800088a:	ea41 010c 	orrle.w	r1, r1, ip
 800088e:	4090      	lslle	r0, r2
 8000890:	1ae4      	subs	r4, r4, r3
 8000892:	bfa2      	ittt	ge
 8000894:	eb01 5104 	addge.w	r1, r1, r4, lsl #20
 8000898:	4329      	orrge	r1, r5
 800089a:	bd30      	popge	{r4, r5, pc}
 800089c:	ea6f 0404 	mvn.w	r4, r4
 80008a0:	3c1f      	subs	r4, #31
 80008a2:	da1c      	bge.n	80008de <__adddf3+0x1d2>
 80008a4:	340c      	adds	r4, #12
 80008a6:	dc0e      	bgt.n	80008c6 <__adddf3+0x1ba>
 80008a8:	f104 0414 	add.w	r4, r4, #20
 80008ac:	f1c4 0220 	rsb	r2, r4, #32
 80008b0:	fa20 f004 	lsr.w	r0, r0, r4
 80008b4:	fa01 f302 	lsl.w	r3, r1, r2
 80008b8:	ea40 0003 	orr.w	r0, r0, r3
 80008bc:	fa21 f304 	lsr.w	r3, r1, r4
 80008c0:	ea45 0103 	orr.w	r1, r5, r3
 80008c4:	bd30      	pop	{r4, r5, pc}
 80008c6:	f1c4 040c 	rsb	r4, r4, #12
 80008ca:	f1c4 0220 	rsb	r2, r4, #32
 80008ce:	fa20 f002 	lsr.w	r0, r0, r2
 80008d2:	fa01 f304 	lsl.w	r3, r1, r4
 80008d6:	ea40 0003 	orr.w	r0, r0, r3
 80008da:	4629      	mov	r1, r5
 80008dc:	bd30      	pop	{r4, r5, pc}
 80008de:	fa21 f004 	lsr.w	r0, r1, r4
 80008e2:	4629      	mov	r1, r5
 80008e4:	bd30      	pop	{r4, r5, pc}
 80008e6:	f094 0f00 	teq	r4, #0
 80008ea:	f483 1380 	eor.w	r3, r3, #1048576	; 0x100000
 80008ee:	bf06      	itte	eq
 80008f0:	f481 1180 	eoreq.w	r1, r1, #1048576	; 0x100000
 80008f4:	3401      	addeq	r4, #1
 80008f6:	3d01      	subne	r5, #1
 80008f8:	e74e      	b.n	8000798 <__adddf3+0x8c>
 80008fa:	ea7f 5c64 	mvns.w	ip, r4, asr #21
 80008fe:	bf18      	it	ne
 8000900:	ea7f 5c65 	mvnsne.w	ip, r5, asr #21
 8000904:	d029      	beq.n	800095a <__adddf3+0x24e>
 8000906:	ea94 0f05 	teq	r4, r5
 800090a:	bf08      	it	eq
 800090c:	ea90 0f02 	teqeq	r0, r2
 8000910:	d005      	beq.n	800091e <__adddf3+0x212>
 8000912:	ea54 0c00 	orrs.w	ip, r4, r0
 8000916:	bf04      	itt	eq
 8000918:	4619      	moveq	r1, r3
 800091a:	4610      	moveq	r0, r2
 800091c:	bd30      	pop	{r4, r5, pc}
 800091e:	ea91 0f03 	teq	r1, r3
 8000922:	bf1e      	ittt	ne
 8000924:	2100      	movne	r1, #0
 8000926:	2000      	movne	r0, #0
 8000928:	bd30      	popne	{r4, r5, pc}
 800092a:	ea5f 5c54 	movs.w	ip, r4, lsr #21
 800092e:	d105      	bne.n	800093c <__adddf3+0x230>
 8000930:	0040      	lsls	r0, r0, #1
 8000932:	4149      	adcs	r1, r1
 8000934:	bf28      	it	cs
 8000936:	f041 4100 	orrcs.w	r1, r1, #2147483648	; 0x80000000
 800093a:	bd30      	pop	{r4, r5, pc}
 800093c:	f514 0480 	adds.w	r4, r4, #4194304	; 0x400000
 8000940:	bf3c      	itt	cc
 8000942:	f501 1180 	addcc.w	r1, r1, #1048576	; 0x100000
 8000946:	bd30      	popcc	{r4, r5, pc}
 8000948:	f001 4500 	and.w	r5, r1, #2147483648	; 0x80000000
 800094c:	f045 41fe 	orr.w	r1, r5, #2130706432	; 0x7f000000
 8000950:	f441 0170 	orr.w	r1, r1, #15728640	; 0xf00000
 8000954:	f04f 0000 	mov.w	r0, #0
 8000958:	bd30      	pop	{r4, r5, pc}
 800095a:	ea7f 5c64 	mvns.w	ip, r4, asr #21
 800095e:	bf1a      	itte	ne
 8000960:	4619      	movne	r1, r3
 8000962:	4610      	movne	r0, r2
 8000964:	ea7f 5c65 	mvnseq.w	ip, r5, asr #21
 8000968:	bf1c      	itt	ne
 800096a:	460b      	movne	r3, r1
 800096c:	4602      	movne	r2, r0
 800096e:	ea50 3401 	orrs.w	r4, r0, r1, lsl #12
 8000972:	bf06      	itte	eq
 8000974:	ea52 3503 	orrseq.w	r5, r2, r3, lsl #12
 8000978:	ea91 0f03 	teqeq	r1, r3
 800097c:	f441 2100 	orrne.w	r1, r1, #524288	; 0x80000
 8000980:	bd30      	pop	{r4, r5, pc}
 8000982:	bf00      	nop

08000984 <__aeabi_ui2d>:
 8000984:	f090 0f00 	teq	r0, #0
 8000988:	bf04      	itt	eq
 800098a:	2100      	moveq	r1, #0
 800098c:	4770      	bxeq	lr
 800098e:	b530      	push	{r4, r5, lr}
 8000990:	f44f 6480 	mov.w	r4, #1024	; 0x400
 8000994:	f104 0432 	add.w	r4, r4, #50	; 0x32
 8000998:	f04f 0500 	mov.w	r5, #0
 800099c:	f04f 0100 	mov.w	r1, #0
 80009a0:	e750      	b.n	8000844 <__adddf3+0x138>
 80009a2:	bf00      	nop

080009a4 <__aeabi_i2d>:
 80009a4:	f090 0f00 	teq	r0, #0
 80009a8:	bf04      	itt	eq
 80009aa:	2100      	moveq	r1, #0
 80009ac:	4770      	bxeq	lr
 80009ae:	b530      	push	{r4, r5, lr}
 80009b0:	f44f 6480 	mov.w	r4, #1024	; 0x400
 80009b4:	f104 0432 	add.w	r4, r4, #50	; 0x32
 80009b8:	f010 4500 	ands.w	r5, r0, #2147483648	; 0x80000000
 80009bc:	bf48      	it	mi
 80009be:	4240      	negmi	r0, r0
 80009c0:	f04f 0100 	mov.w	r1, #0
 80009c4:	e73e      	b.n	8000844 <__adddf3+0x138>
 80009c6:	bf00      	nop

080009c8 <__aeabi_f2d>:
 80009c8:	0042      	lsls	r2, r0, #1
 80009ca:	ea4f 01e2 	mov.w	r1, r2, asr #3
 80009ce:	ea4f 0131 	mov.w	r1, r1, rrx
 80009d2:	ea4f 7002 	mov.w	r0, r2, lsl #28
 80009d6:	bf1f      	itttt	ne
 80009d8:	f012 437f 	andsne.w	r3, r2, #4278190080	; 0xff000000
 80009dc:	f093 4f7f 	teqne	r3, #4278190080	; 0xff000000
 80009e0:	f081 5160 	eorne.w	r1, r1, #939524096	; 0x38000000
 80009e4:	4770      	bxne	lr
 80009e6:	f092 0f00 	teq	r2, #0
 80009ea:	bf14      	ite	ne
 80009ec:	f093 4f7f 	teqne	r3, #4278190080	; 0xff000000
 80009f0:	4770      	bxeq	lr
 80009f2:	b530      	push	{r4, r5, lr}
 80009f4:	f44f 7460 	mov.w	r4, #896	; 0x380
 80009f8:	f001 4500 	and.w	r5, r1, #2147483648	; 0x80000000
 80009fc:	f021 4100 	bic.w	r1, r1, #2147483648	; 0x80000000
 8000a00:	e720      	b.n	8000844 <__adddf3+0x138>
 8000a02:	bf00      	nop

08000a04 <__aeabi_ul2d>:
 8000a04:	ea50 0201 	orrs.w	r2, r0, r1
 8000a08:	bf08      	it	eq
 8000a0a:	4770      	bxeq	lr
 8000a0c:	b530      	push	{r4, r5, lr}
 8000a0e:	f04f 0500 	mov.w	r5, #0
 8000a12:	e00a      	b.n	8000a2a <__aeabi_l2d+0x16>

08000a14 <__aeabi_l2d>:
 8000a14:	ea50 0201 	orrs.w	r2, r0, r1
 8000a18:	bf08      	it	eq
 8000a1a:	4770      	bxeq	lr
 8000a1c:	b530      	push	{r4, r5, lr}
 8000a1e:	f011 4500 	ands.w	r5, r1, #2147483648	; 0x80000000
 8000a22:	d502      	bpl.n	8000a2a <__aeabi_l2d+0x16>
 8000a24:	4240      	negs	r0, r0
 8000a26:	eb61 0141 	sbc.w	r1, r1, r1, lsl #1
 8000a2a:	f44f 6480 	mov.w	r4, #1024	; 0x400
 8000a2e:	f104 0432 	add.w	r4, r4, #50	; 0x32
 8000a32:	ea5f 5c91 	movs.w	ip, r1, lsr #22
 8000a36:	f43f aedc 	beq.w	80007f2 <__adddf3+0xe6>
 8000a3a:	f04f 0203 	mov.w	r2, #3
 8000a3e:	ea5f 0cdc 	movs.w	ip, ip, lsr #3
 8000a42:	bf18      	it	ne
 8000a44:	3203      	addne	r2, #3
 8000a46:	ea5f 0cdc 	movs.w	ip, ip, lsr #3
 8000a4a:	bf18      	it	ne
 8000a4c:	3203      	addne	r2, #3
 8000a4e:	eb02 02dc 	add.w	r2, r2, ip, lsr #3
 8000a52:	f1c2 0320 	rsb	r3, r2, #32
 8000a56:	fa00 fc03 	lsl.w	ip, r0, r3
 8000a5a:	fa20 f002 	lsr.w	r0, r0, r2
 8000a5e:	fa01 fe03 	lsl.w	lr, r1, r3
 8000a62:	ea40 000e 	orr.w	r0, r0, lr
 8000a66:	fa21 f102 	lsr.w	r1, r1, r2
 8000a6a:	4414      	add	r4, r2
 8000a6c:	e6c1      	b.n	80007f2 <__adddf3+0xe6>
 8000a6e:	bf00      	nop

08000a70 <__aeabi_dmul>:
 8000a70:	b570      	push	{r4, r5, r6, lr}
 8000a72:	f04f 0cff 	mov.w	ip, #255	; 0xff
 8000a76:	f44c 6ce0 	orr.w	ip, ip, #1792	; 0x700
 8000a7a:	ea1c 5411 	ands.w	r4, ip, r1, lsr #20
 8000a7e:	bf1d      	ittte	ne
 8000a80:	ea1c 5513 	andsne.w	r5, ip, r3, lsr #20
 8000a84:	ea94 0f0c 	teqne	r4, ip
 8000a88:	ea95 0f0c 	teqne	r5, ip
 8000a8c:	f000 f8de 	bleq	8000c4c <__aeabi_dmul+0x1dc>
 8000a90:	442c      	add	r4, r5
 8000a92:	ea81 0603 	eor.w	r6, r1, r3
 8000a96:	ea21 514c 	bic.w	r1, r1, ip, lsl #21
 8000a9a:	ea23 534c 	bic.w	r3, r3, ip, lsl #21
 8000a9e:	ea50 3501 	orrs.w	r5, r0, r1, lsl #12
 8000aa2:	bf18      	it	ne
 8000aa4:	ea52 3503 	orrsne.w	r5, r2, r3, lsl #12
 8000aa8:	f441 1180 	orr.w	r1, r1, #1048576	; 0x100000
 8000aac:	f443 1380 	orr.w	r3, r3, #1048576	; 0x100000
 8000ab0:	d038      	beq.n	8000b24 <__aeabi_dmul+0xb4>
 8000ab2:	fba0 ce02 	umull	ip, lr, r0, r2
 8000ab6:	f04f 0500 	mov.w	r5, #0
 8000aba:	fbe1 e502 	umlal	lr, r5, r1, r2
 8000abe:	f006 4200 	and.w	r2, r6, #2147483648	; 0x80000000
 8000ac2:	fbe0 e503 	umlal	lr, r5, r0, r3
 8000ac6:	f04f 0600 	mov.w	r6, #0
 8000aca:	fbe1 5603 	umlal	r5, r6, r1, r3
 8000ace:	f09c 0f00 	teq	ip, #0
 8000ad2:	bf18      	it	ne
 8000ad4:	f04e 0e01 	orrne.w	lr, lr, #1
 8000ad8:	f1a4 04ff 	sub.w	r4, r4, #255	; 0xff
 8000adc:	f5b6 7f00 	cmp.w	r6, #512	; 0x200
 8000ae0:	f564 7440 	sbc.w	r4, r4, #768	; 0x300
 8000ae4:	d204      	bcs.n	8000af0 <__aeabi_dmul+0x80>
 8000ae6:	ea5f 0e4e 	movs.w	lr, lr, lsl #1
 8000aea:	416d      	adcs	r5, r5
 8000aec:	eb46 0606 	adc.w	r6, r6, r6
 8000af0:	ea42 21c6 	orr.w	r1, r2, r6, lsl #11
 8000af4:	ea41 5155 	orr.w	r1, r1, r5, lsr #21
 8000af8:	ea4f 20c5 	mov.w	r0, r5, lsl #11
 8000afc:	ea40 505e 	orr.w	r0, r0, lr, lsr #21
 8000b00:	ea4f 2ece 	mov.w	lr, lr, lsl #11
 8000b04:	f1b4 0cfd 	subs.w	ip, r4, #253	; 0xfd
 8000b08:	bf88      	it	hi
 8000b0a:	f5bc 6fe0 	cmphi.w	ip, #1792	; 0x700
 8000b0e:	d81e      	bhi.n	8000b4e <__aeabi_dmul+0xde>
 8000b10:	f1be 4f00 	cmp.w	lr, #2147483648	; 0x80000000
 8000b14:	bf08      	it	eq
 8000b16:	ea5f 0e50 	movseq.w	lr, r0, lsr #1
 8000b1a:	f150 0000 	adcs.w	r0, r0, #0
 8000b1e:	eb41 5104 	adc.w	r1, r1, r4, lsl #20
 8000b22:	bd70      	pop	{r4, r5, r6, pc}
 8000b24:	f006 4600 	and.w	r6, r6, #2147483648	; 0x80000000
 8000b28:	ea46 0101 	orr.w	r1, r6, r1
 8000b2c:	ea40 0002 	orr.w	r0, r0, r2
 8000b30:	ea81 0103 	eor.w	r1, r1, r3
 8000b34:	ebb4 045c 	subs.w	r4, r4, ip, lsr #1
 8000b38:	bfc2      	ittt	gt
 8000b3a:	ebd4 050c 	rsbsgt	r5, r4, ip
 8000b3e:	ea41 5104 	orrgt.w	r1, r1, r4, lsl #20
 8000b42:	bd70      	popgt	{r4, r5, r6, pc}
 8000b44:	f441 1180 	orr.w	r1, r1, #1048576	; 0x100000
 8000b48:	f04f 0e00 	mov.w	lr, #0
 8000b4c:	3c01      	subs	r4, #1
 8000b4e:	f300 80ab 	bgt.w	8000ca8 <__aeabi_dmul+0x238>
 8000b52:	f114 0f36 	cmn.w	r4, #54	; 0x36
 8000b56:	bfde      	ittt	le
 8000b58:	2000      	movle	r0, #0
 8000b5a:	f001 4100 	andle.w	r1, r1, #2147483648	; 0x80000000
 8000b5e:	bd70      	pople	{r4, r5, r6, pc}
 8000b60:	f1c4 0400 	rsb	r4, r4, #0
 8000b64:	3c20      	subs	r4, #32
 8000b66:	da35      	bge.n	8000bd4 <__aeabi_dmul+0x164>
 8000b68:	340c      	adds	r4, #12
 8000b6a:	dc1b      	bgt.n	8000ba4 <__aeabi_dmul+0x134>
 8000b6c:	f104 0414 	add.w	r4, r4, #20
 8000b70:	f1c4 0520 	rsb	r5, r4, #32
 8000b74:	fa00 f305 	lsl.w	r3, r0, r5
 8000b78:	fa20 f004 	lsr.w	r0, r0, r4
 8000b7c:	fa01 f205 	lsl.w	r2, r1, r5
 8000b80:	ea40 0002 	orr.w	r0, r0, r2
 8000b84:	f001 4200 	and.w	r2, r1, #2147483648	; 0x80000000
 8000b88:	f021 4100 	bic.w	r1, r1, #2147483648	; 0x80000000
 8000b8c:	eb10 70d3 	adds.w	r0, r0, r3, lsr #31
 8000b90:	fa21 f604 	lsr.w	r6, r1, r4
 8000b94:	eb42 0106 	adc.w	r1, r2, r6
 8000b98:	ea5e 0e43 	orrs.w	lr, lr, r3, lsl #1
 8000b9c:	bf08      	it	eq
 8000b9e:	ea20 70d3 	biceq.w	r0, r0, r3, lsr #31
 8000ba2:	bd70      	pop	{r4, r5, r6, pc}
 8000ba4:	f1c4 040c 	rsb	r4, r4, #12
 8000ba8:	f1c4 0520 	rsb	r5, r4, #32
 8000bac:	fa00 f304 	lsl.w	r3, r0, r4
 8000bb0:	fa20 f005 	lsr.w	r0, r0, r5
 8000bb4:	fa01 f204 	lsl.w	r2, r1, r4
 8000bb8:	ea40 0002 	orr.w	r0, r0, r2
 8000bbc:	f001 4100 	and.w	r1, r1, #2147483648	; 0x80000000
 8000bc0:	eb10 70d3 	adds.w	r0, r0, r3, lsr #31
 8000bc4:	f141 0100 	adc.w	r1, r1, #0
 8000bc8:	ea5e 0e43 	orrs.w	lr, lr, r3, lsl #1
 8000bcc:	bf08      	it	eq
 8000bce:	ea20 70d3 	biceq.w	r0, r0, r3, lsr #31
 8000bd2:	bd70      	pop	{r4, r5, r6, pc}
 8000bd4:	f1c4 0520 	rsb	r5, r4, #32
 8000bd8:	fa00 f205 	lsl.w	r2, r0, r5
 8000bdc:	ea4e 0e02 	orr.w	lr, lr, r2
 8000be0:	fa20 f304 	lsr.w	r3, r0, r4
 8000be4:	fa01 f205 	lsl.w	r2, r1, r5
 8000be8:	ea43 0302 	orr.w	r3, r3, r2
 8000bec:	fa21 f004 	lsr.w	r0, r1, r4
 8000bf0:	f001 4100 	and.w	r1, r1, #2147483648	; 0x80000000
 8000bf4:	fa21 f204 	lsr.w	r2, r1, r4
 8000bf8:	ea20 0002 	bic.w	r0, r0, r2
 8000bfc:	eb00 70d3 	add.w	r0, r0, r3, lsr #31
 8000c00:	ea5e 0e43 	orrs.w	lr, lr, r3, lsl #1
 8000c04:	bf08      	it	eq
 8000c06:	ea20 70d3 	biceq.w	r0, r0, r3, lsr #31
 8000c0a:	bd70      	pop	{r4, r5, r6, pc}
 8000c0c:	f094 0f00 	teq	r4, #0
 8000c10:	d10f      	bne.n	8000c32 <__aeabi_dmul+0x1c2>
 8000c12:	f001 4600 	and.w	r6, r1, #2147483648	; 0x80000000
 8000c16:	0040      	lsls	r0, r0, #1
 8000c18:	eb41 0101 	adc.w	r1, r1, r1
 8000c1c:	f411 1f80 	tst.w	r1, #1048576	; 0x100000
 8000c20:	bf08      	it	eq
 8000c22:	3c01      	subeq	r4, #1
 8000c24:	d0f7      	beq.n	8000c16 <__aeabi_dmul+0x1a6>
 8000c26:	ea41 0106 	orr.w	r1, r1, r6
 8000c2a:	f095 0f00 	teq	r5, #0
 8000c2e:	bf18      	it	ne
 8000c30:	4770      	bxne	lr
 8000c32:	f003 4600 	and.w	r6, r3, #2147483648	; 0x80000000
 8000c36:	0052      	lsls	r2, r2, #1
 8000c38:	eb43 0303 	adc.w	r3, r3, r3
 8000c3c:	f413 1f80 	tst.w	r3, #1048576	; 0x100000
 8000c40:	bf08      	it	eq
 8000c42:	3d01      	subeq	r5, #1
 8000c44:	d0f7      	beq.n	8000c36 <__aeabi_dmul+0x1c6>
 8000c46:	ea43 0306 	orr.w	r3, r3, r6
 8000c4a:	4770      	bx	lr
 8000c4c:	ea94 0f0c 	teq	r4, ip
 8000c50:	ea0c 5513 	and.w	r5, ip, r3, lsr #20
 8000c54:	bf18      	it	ne
 8000c56:	ea95 0f0c 	teqne	r5, ip
 8000c5a:	d00c      	beq.n	8000c76 <__aeabi_dmul+0x206>
 8000c5c:	ea50 0641 	orrs.w	r6, r0, r1, lsl #1
 8000c60:	bf18      	it	ne
 8000c62:	ea52 0643 	orrsne.w	r6, r2, r3, lsl #1
 8000c66:	d1d1      	bne.n	8000c0c <__aeabi_dmul+0x19c>
 8000c68:	ea81 0103 	eor.w	r1, r1, r3
 8000c6c:	f001 4100 	and.w	r1, r1, #2147483648	; 0x80000000
 8000c70:	f04f 0000 	mov.w	r0, #0
 8000c74:	bd70      	pop	{r4, r5, r6, pc}
 8000c76:	ea50 0641 	orrs.w	r6, r0, r1, lsl #1
 8000c7a:	bf06      	itte	eq
 8000c7c:	4610      	moveq	r0, r2
 8000c7e:	4619      	moveq	r1, r3
 8000c80:	ea52 0643 	orrsne.w	r6, r2, r3, lsl #1
 8000c84:	d019      	beq.n	8000cba <__aeabi_dmul+0x24a>
 8000c86:	ea94 0f0c 	teq	r4, ip
 8000c8a:	d102      	bne.n	8000c92 <__aeabi_dmul+0x222>
 8000c8c:	ea50 3601 	orrs.w	r6, r0, r1, lsl #12
 8000c90:	d113      	bne.n	8000cba <__aeabi_dmul+0x24a>
 8000c92:	ea95 0f0c 	teq	r5, ip
 8000c96:	d105      	bne.n	8000ca4 <__aeabi_dmul+0x234>
 8000c98:	ea52 3603 	orrs.w	r6, r2, r3, lsl #12
 8000c9c:	bf1c      	itt	ne
 8000c9e:	4610      	movne	r0, r2
 8000ca0:	4619      	movne	r1, r3
 8000ca2:	d10a      	bne.n	8000cba <__aeabi_dmul+0x24a>
 8000ca4:	ea81 0103 	eor.w	r1, r1, r3
 8000ca8:	f001 4100 	and.w	r1, r1, #2147483648	; 0x80000000
 8000cac:	f041 41fe 	orr.w	r1, r1, #2130706432	; 0x7f000000
 8000cb0:	f441 0170 	orr.w	r1, r1, #15728640	; 0xf00000
 8000cb4:	f04f 0000 	mov.w	r0, #0
 8000cb8:	bd70      	pop	{r4, r5, r6, pc}
 8000cba:	f041 41fe 	orr.w	r1, r1, #2130706432	; 0x7f000000
 8000cbe:	f441 0178 	orr.w	r1, r1, #16252928	; 0xf80000
 8000cc2:	bd70      	pop	{r4, r5, r6, pc}

08000cc4 <__aeabi_ddiv>:
 8000cc4:	b570      	push	{r4, r5, r6, lr}
 8000cc6:	f04f 0cff 	mov.w	ip, #255	; 0xff
 8000cca:	f44c 6ce0 	orr.w	ip, ip, #1792	; 0x700
 8000cce:	ea1c 5411 	ands.w	r4, ip, r1, lsr #20
 8000cd2:	bf1d      	ittte	ne
 8000cd4:	ea1c 5513 	andsne.w	r5, ip, r3, lsr #20
 8000cd8:	ea94 0f0c 	teqne	r4, ip
 8000cdc:	ea95 0f0c 	teqne	r5, ip
 8000ce0:	f000 f8a7 	bleq	8000e32 <__aeabi_ddiv+0x16e>
 8000ce4:	eba4 0405 	sub.w	r4, r4, r5
 8000ce8:	ea81 0e03 	eor.w	lr, r1, r3
 8000cec:	ea52 3503 	orrs.w	r5, r2, r3, lsl #12
 8000cf0:	ea4f 3101 	mov.w	r1, r1, lsl #12
 8000cf4:	f000 8088 	beq.w	8000e08 <__aeabi_ddiv+0x144>
 8000cf8:	ea4f 3303 	mov.w	r3, r3, lsl #12
 8000cfc:	f04f 5580 	mov.w	r5, #268435456	; 0x10000000
 8000d00:	ea45 1313 	orr.w	r3, r5, r3, lsr #4
 8000d04:	ea43 6312 	orr.w	r3, r3, r2, lsr #24
 8000d08:	ea4f 2202 	mov.w	r2, r2, lsl #8
 8000d0c:	ea45 1511 	orr.w	r5, r5, r1, lsr #4
 8000d10:	ea45 6510 	orr.w	r5, r5, r0, lsr #24
 8000d14:	ea4f 2600 	mov.w	r6, r0, lsl #8
 8000d18:	f00e 4100 	and.w	r1, lr, #2147483648	; 0x80000000
 8000d1c:	429d      	cmp	r5, r3
 8000d1e:	bf08      	it	eq
 8000d20:	4296      	cmpeq	r6, r2
 8000d22:	f144 04fd 	adc.w	r4, r4, #253	; 0xfd
 8000d26:	f504 7440 	add.w	r4, r4, #768	; 0x300
 8000d2a:	d202      	bcs.n	8000d32 <__aeabi_ddiv+0x6e>
 8000d2c:	085b      	lsrs	r3, r3, #1
 8000d2e:	ea4f 0232 	mov.w	r2, r2, rrx
 8000d32:	1ab6      	subs	r6, r6, r2
 8000d34:	eb65 0503 	sbc.w	r5, r5, r3
 8000d38:	085b      	lsrs	r3, r3, #1
 8000d3a:	ea4f 0232 	mov.w	r2, r2, rrx
 8000d3e:	f44f 1080 	mov.w	r0, #1048576	; 0x100000
 8000d42:	f44f 2c00 	mov.w	ip, #524288	; 0x80000
 8000d46:	ebb6 0e02 	subs.w	lr, r6, r2
 8000d4a:	eb75 0e03 	sbcs.w	lr, r5, r3
 8000d4e:	bf22      	ittt	cs
 8000d50:	1ab6      	subcs	r6, r6, r2
 8000d52:	4675      	movcs	r5, lr
 8000d54:	ea40 000c 	orrcs.w	r0, r0, ip
 8000d58:	085b      	lsrs	r3, r3, #1
 8000d5a:	ea4f 0232 	mov.w	r2, r2, rrx
 8000d5e:	ebb6 0e02 	subs.w	lr, r6, r2
 8000d62:	eb75 0e03 	sbcs.w	lr, r5, r3
 8000d66:	bf22      	ittt	cs
 8000d68:	1ab6      	subcs	r6, r6, r2
 8000d6a:	4675      	movcs	r5, lr
 8000d6c:	ea40 005c 	orrcs.w	r0, r0, ip, lsr #1
 8000d70:	085b      	lsrs	r3, r3, #1
 8000d72:	ea4f 0232 	mov.w	r2, r2, rrx
 8000d76:	ebb6 0e02 	subs.w	lr, r6, r2
 8000d7a:	eb75 0e03 	sbcs.w	lr, r5, r3
 8000d7e:	bf22      	ittt	cs
 8000d80:	1ab6      	subcs	r6, r6, r2
 8000d82:	4675      	movcs	r5, lr
 8000d84:	ea40 009c 	orrcs.w	r0, r0, ip, lsr #2
 8000d88:	085b      	lsrs	r3, r3, #1
 8000d8a:	ea4f 0232 	mov.w	r2, r2, rrx
 8000d8e:	ebb6 0e02 	subs.w	lr, r6, r2
 8000d92:	eb75 0e03 	sbcs.w	lr, r5, r3
 8000d96:	bf22      	ittt	cs
 8000d98:	1ab6      	subcs	r6, r6, r2
 8000d9a:	4675      	movcs	r5, lr
 8000d9c:	ea40 00dc 	orrcs.w	r0, r0, ip, lsr #3
 8000da0:	ea55 0e06 	orrs.w	lr, r5, r6
 8000da4:	d018      	beq.n	8000dd8 <__aeabi_ddiv+0x114>
 8000da6:	ea4f 1505 	mov.w	r5, r5, lsl #4
 8000daa:	ea45 7516 	orr.w	r5, r5, r6, lsr #28
 8000dae:	ea4f 1606 	mov.w	r6, r6, lsl #4
 8000db2:	ea4f 03c3 	mov.w	r3, r3, lsl #3
 8000db6:	ea43 7352 	orr.w	r3, r3, r2, lsr #29
 8000dba:	ea4f 02c2 	mov.w	r2, r2, lsl #3
 8000dbe:	ea5f 1c1c 	movs.w	ip, ip, lsr #4
 8000dc2:	d1c0      	bne.n	8000d46 <__aeabi_ddiv+0x82>
 8000dc4:	f411 1f80 	tst.w	r1, #1048576	; 0x100000
 8000dc8:	d10b      	bne.n	8000de2 <__aeabi_ddiv+0x11e>
 8000dca:	ea41 0100 	orr.w	r1, r1, r0
 8000dce:	f04f 0000 	mov.w	r0, #0
 8000dd2:	f04f 4c00 	mov.w	ip, #2147483648	; 0x80000000
 8000dd6:	e7b6      	b.n	8000d46 <__aeabi_ddiv+0x82>
 8000dd8:	f411 1f80 	tst.w	r1, #1048576	; 0x100000
 8000ddc:	bf04      	itt	eq
 8000dde:	4301      	orreq	r1, r0
 8000de0:	2000      	moveq	r0, #0
 8000de2:	f1b4 0cfd 	subs.w	ip, r4, #253	; 0xfd
 8000de6:	bf88      	it	hi
 8000de8:	f5bc 6fe0 	cmphi.w	ip, #1792	; 0x700
 8000dec:	f63f aeaf 	bhi.w	8000b4e <__aeabi_dmul+0xde>
 8000df0:	ebb5 0c03 	subs.w	ip, r5, r3
 8000df4:	bf04      	itt	eq
 8000df6:	ebb6 0c02 	subseq.w	ip, r6, r2
 8000dfa:	ea5f 0c50 	movseq.w	ip, r0, lsr #1
 8000dfe:	f150 0000 	adcs.w	r0, r0, #0
 8000e02:	eb41 5104 	adc.w	r1, r1, r4, lsl #20
 8000e06:	bd70      	pop	{r4, r5, r6, pc}
 8000e08:	f00e 4e00 	and.w	lr, lr, #2147483648	; 0x80000000
 8000e0c:	ea4e 3111 	orr.w	r1, lr, r1, lsr #12
 8000e10:	eb14 045c 	adds.w	r4, r4, ip, lsr #1
 8000e14:	bfc2      	ittt	gt
 8000e16:	ebd4 050c 	rsbsgt	r5, r4, ip
 8000e1a:	ea41 5104 	orrgt.w	r1, r1, r4, lsl #20
 8000e1e:	bd70      	popgt	{r4, r5, r6, pc}
 8000e20:	f441 1180 	orr.w	r1, r1, #1048576	; 0x100000
 8000e24:	f04f 0e00 	mov.w	lr, #0
 8000e28:	3c01      	subs	r4, #1
 8000e2a:	e690      	b.n	8000b4e <__aeabi_dmul+0xde>
 8000e2c:	ea45 0e06 	orr.w	lr, r5, r6
 8000e30:	e68d      	b.n	8000b4e <__aeabi_dmul+0xde>
 8000e32:	ea0c 5513 	and.w	r5, ip, r3, lsr #20
 8000e36:	ea94 0f0c 	teq	r4, ip
 8000e3a:	bf08      	it	eq
 8000e3c:	ea95 0f0c 	teqeq	r5, ip
 8000e40:	f43f af3b 	beq.w	8000cba <__aeabi_dmul+0x24a>
 8000e44:	ea94 0f0c 	teq	r4, ip
 8000e48:	d10a      	bne.n	8000e60 <__aeabi_ddiv+0x19c>
 8000e4a:	ea50 3401 	orrs.w	r4, r0, r1, lsl #12
 8000e4e:	f47f af34 	bne.w	8000cba <__aeabi_dmul+0x24a>
 8000e52:	ea95 0f0c 	teq	r5, ip
 8000e56:	f47f af25 	bne.w	8000ca4 <__aeabi_dmul+0x234>
 8000e5a:	4610      	mov	r0, r2
 8000e5c:	4619      	mov	r1, r3
 8000e5e:	e72c      	b.n	8000cba <__aeabi_dmul+0x24a>
 8000e60:	ea95 0f0c 	teq	r5, ip
 8000e64:	d106      	bne.n	8000e74 <__aeabi_ddiv+0x1b0>
 8000e66:	ea52 3503 	orrs.w	r5, r2, r3, lsl #12
 8000e6a:	f43f aefd 	beq.w	8000c68 <__aeabi_dmul+0x1f8>
 8000e6e:	4610      	mov	r0, r2
 8000e70:	4619      	mov	r1, r3
 8000e72:	e722      	b.n	8000cba <__aeabi_dmul+0x24a>
 8000e74:	ea50 0641 	orrs.w	r6, r0, r1, lsl #1
 8000e78:	bf18      	it	ne
 8000e7a:	ea52 0643 	orrsne.w	r6, r2, r3, lsl #1
 8000e7e:	f47f aec5 	bne.w	8000c0c <__aeabi_dmul+0x19c>
 8000e82:	ea50 0441 	orrs.w	r4, r0, r1, lsl #1
 8000e86:	f47f af0d 	bne.w	8000ca4 <__aeabi_dmul+0x234>
 8000e8a:	ea52 0543 	orrs.w	r5, r2, r3, lsl #1
 8000e8e:	f47f aeeb 	bne.w	8000c68 <__aeabi_dmul+0x1f8>
 8000e92:	e712      	b.n	8000cba <__aeabi_dmul+0x24a>

08000e94 <__gedf2>:
 8000e94:	f04f 3cff 	mov.w	ip, #4294967295
 8000e98:	e006      	b.n	8000ea8 <__cmpdf2+0x4>
 8000e9a:	bf00      	nop

08000e9c <__ledf2>:
 8000e9c:	f04f 0c01 	mov.w	ip, #1
 8000ea0:	e002      	b.n	8000ea8 <__cmpdf2+0x4>
 8000ea2:	bf00      	nop

08000ea4 <__cmpdf2>:
 8000ea4:	f04f 0c01 	mov.w	ip, #1
 8000ea8:	f84d cd04 	str.w	ip, [sp, #-4]!
 8000eac:	ea4f 0c41 	mov.w	ip, r1, lsl #1
 8000eb0:	ea7f 5c6c 	mvns.w	ip, ip, asr #21
 8000eb4:	ea4f 0c43 	mov.w	ip, r3, lsl #1
 8000eb8:	bf18      	it	ne
 8000eba:	ea7f 5c6c 	mvnsne.w	ip, ip, asr #21
 8000ebe:	d01b      	beq.n	8000ef8 <__cmpdf2+0x54>
 8000ec0:	b001      	add	sp, #4
 8000ec2:	ea50 0c41 	orrs.w	ip, r0, r1, lsl #1
 8000ec6:	bf0c      	ite	eq
 8000ec8:	ea52 0c43 	orrseq.w	ip, r2, r3, lsl #1
 8000ecc:	ea91 0f03 	teqne	r1, r3
 8000ed0:	bf02      	ittt	eq
 8000ed2:	ea90 0f02 	teqeq	r0, r2
 8000ed6:	2000      	moveq	r0, #0
 8000ed8:	4770      	bxeq	lr
 8000eda:	f110 0f00 	cmn.w	r0, #0
 8000ede:	ea91 0f03 	teq	r1, r3
 8000ee2:	bf58      	it	pl
 8000ee4:	4299      	cmppl	r1, r3
 8000ee6:	bf08      	it	eq
 8000ee8:	4290      	cmpeq	r0, r2
 8000eea:	bf2c      	ite	cs
 8000eec:	17d8      	asrcs	r0, r3, #31
 8000eee:	ea6f 70e3 	mvncc.w	r0, r3, asr #31
 8000ef2:	f040 0001 	orr.w	r0, r0, #1
 8000ef6:	4770      	bx	lr
 8000ef8:	ea4f 0c41 	mov.w	ip, r1, lsl #1
 8000efc:	ea7f 5c6c 	mvns.w	ip, ip, asr #21
 8000f00:	d102      	bne.n	8000f08 <__cmpdf2+0x64>
 8000f02:	ea50 3c01 	orrs.w	ip, r0, r1, lsl #12
 8000f06:	d107      	bne.n	8000f18 <__cmpdf2+0x74>
 8000f08:	ea4f 0c43 	mov.w	ip, r3, lsl #1
 8000f0c:	ea7f 5c6c 	mvns.w	ip, ip, asr #21
 8000f10:	d1d6      	bne.n	8000ec0 <__cmpdf2+0x1c>
 8000f12:	ea52 3c03 	orrs.w	ip, r2, r3, lsl #12
 8000f16:	d0d3      	beq.n	8000ec0 <__cmpdf2+0x1c>
 8000f18:	f85d 0b04 	ldr.w	r0, [sp], #4
 8000f1c:	4770      	bx	lr
 8000f1e:	bf00      	nop

08000f20 <__aeabi_cdrcmple>:
 8000f20:	4684      	mov	ip, r0
 8000f22:	4610      	mov	r0, r2
 8000f24:	4662      	mov	r2, ip
 8000f26:	468c      	mov	ip, r1
 8000f28:	4619      	mov	r1, r3
 8000f2a:	4663      	mov	r3, ip
 8000f2c:	e000      	b.n	8000f30 <__aeabi_cdcmpeq>
 8000f2e:	bf00      	nop

08000f30 <__aeabi_cdcmpeq>:
 8000f30:	b501      	push	{r0, lr}
 8000f32:	f7ff ffb7 	bl	8000ea4 <__cmpdf2>
 8000f36:	2800      	cmp	r0, #0
 8000f38:	bf48      	it	mi
 8000f3a:	f110 0f00 	cmnmi.w	r0, #0
 8000f3e:	bd01      	pop	{r0, pc}

08000f40 <__aeabi_dcmpeq>:
 8000f40:	f84d ed08 	str.w	lr, [sp, #-8]!
 8000f44:	f7ff fff4 	bl	8000f30 <__aeabi_cdcmpeq>
 8000f48:	bf0c      	ite	eq
 8000f4a:	2001      	moveq	r0, #1
 8000f4c:	2000      	movne	r0, #0
 8000f4e:	f85d fb08 	ldr.w	pc, [sp], #8
 8000f52:	bf00      	nop

08000f54 <__aeabi_dcmplt>:
 8000f54:	f84d ed08 	str.w	lr, [sp, #-8]!
 8000f58:	f7ff ffea 	bl	8000f30 <__aeabi_cdcmpeq>
 8000f5c:	bf34      	ite	cc
 8000f5e:	2001      	movcc	r0, #1
 8000f60:	2000      	movcs	r0, #0
 8000f62:	f85d fb08 	ldr.w	pc, [sp], #8
 8000f66:	bf00      	nop

08000f68 <__aeabi_dcmple>:
 8000f68:	f84d ed08 	str.w	lr, [sp, #-8]!
 8000f6c:	f7ff ffe0 	bl	8000f30 <__aeabi_cdcmpeq>
 8000f70:	bf94      	ite	ls
 8000f72:	2001      	movls	r0, #1
 8000f74:	2000      	movhi	r0, #0
 8000f76:	f85d fb08 	ldr.w	pc, [sp], #8
 8000f7a:	bf00      	nop

08000f7c <__aeabi_dcmpge>:
 8000f7c:	f84d ed08 	str.w	lr, [sp, #-8]!
 8000f80:	f7ff ffce 	bl	8000f20 <__aeabi_cdrcmple>
 8000f84:	bf94      	ite	ls
 8000f86:	2001      	movls	r0, #1
 8000f88:	2000      	movhi	r0, #0
 8000f8a:	f85d fb08 	ldr.w	pc, [sp], #8
 8000f8e:	bf00      	nop

08000f90 <__aeabi_dcmpgt>:
 8000f90:	f84d ed08 	str.w	lr, [sp, #-8]!
 8000f94:	f7ff ffc4 	bl	8000f20 <__aeabi_cdrcmple>
 8000f98:	bf34      	ite	cc
 8000f9a:	2001      	movcc	r0, #1
 8000f9c:	2000      	movcs	r0, #0
 8000f9e:	f85d fb08 	ldr.w	pc, [sp], #8
 8000fa2:	bf00      	nop

08000fa4 <__aeabi_d2iz>:
 8000fa4:	ea4f 0241 	mov.w	r2, r1, lsl #1
 8000fa8:	f512 1200 	adds.w	r2, r2, #2097152	; 0x200000
 8000fac:	d215      	bcs.n	8000fda <__aeabi_d2iz+0x36>
 8000fae:	d511      	bpl.n	8000fd4 <__aeabi_d2iz+0x30>
 8000fb0:	f46f 7378 	mvn.w	r3, #992	; 0x3e0
 8000fb4:	ebb3 5262 	subs.w	r2, r3, r2, asr #21
 8000fb8:	d912      	bls.n	8000fe0 <__aeabi_d2iz+0x3c>
 8000fba:	ea4f 23c1 	mov.w	r3, r1, lsl #11
 8000fbe:	f043 4300 	orr.w	r3, r3, #2147483648	; 0x80000000
 8000fc2:	ea43 5350 	orr.w	r3, r3, r0, lsr #21
 8000fc6:	f011 4f00 	tst.w	r1, #2147483648	; 0x80000000
 8000fca:	fa23 f002 	lsr.w	r0, r3, r2
 8000fce:	bf18      	it	ne
 8000fd0:	4240      	negne	r0, r0
 8000fd2:	4770      	bx	lr
 8000fd4:	f04f 0000 	mov.w	r0, #0
 8000fd8:	4770      	bx	lr
 8000fda:	ea50 3001 	orrs.w	r0, r0, r1, lsl #12
 8000fde:	d105      	bne.n	8000fec <__aeabi_d2iz+0x48>
 8000fe0:	f011 4000 	ands.w	r0, r1, #2147483648	; 0x80000000
 8000fe4:	bf08      	it	eq
 8000fe6:	f06f 4000 	mvneq.w	r0, #2147483648	; 0x80000000
 8000fea:	4770      	bx	lr
 8000fec:	f04f 0000 	mov.w	r0, #0
 8000ff0:	4770      	bx	lr
 8000ff2:	bf00      	nop

08000ff4 <__aeabi_d2uiz>:
 8000ff4:	004a      	lsls	r2, r1, #1
 8000ff6:	d211      	bcs.n	800101c <__aeabi_d2uiz+0x28>
 8000ff8:	f512 1200 	adds.w	r2, r2, #2097152	; 0x200000
 8000ffc:	d211      	bcs.n	8001022 <__aeabi_d2uiz+0x2e>
 8000ffe:	d50d      	bpl.n	800101c <__aeabi_d2uiz+0x28>
 8001000:	f46f 7378 	mvn.w	r3, #992	; 0x3e0
 8001004:	ebb3 5262 	subs.w	r2, r3, r2, asr #21
 8001008:	d40e      	bmi.n	8001028 <__aeabi_d2uiz+0x34>
 800100a:	ea4f 23c1 	mov.w	r3, r1, lsl #11
 800100e:	f043 4300 	orr.w	r3, r3, #2147483648	; 0x80000000
 8001012:	ea43 5350 	orr.w	r3, r3, r0, lsr #21
 8001016:	fa23 f002 	lsr.w	r0, r3, r2
 800101a:	4770      	bx	lr
 800101c:	f04f 0000 	mov.w	r0, #0
 8001020:	4770      	bx	lr
 8001022:	ea50 3001 	orrs.w	r0, r0, r1, lsl #12
 8001026:	d102      	bne.n	800102e <__aeabi_d2uiz+0x3a>
 8001028:	f04f 30ff 	mov.w	r0, #4294967295
 800102c:	4770      	bx	lr
 800102e:	f04f 0000 	mov.w	r0, #0
 8001032:	4770      	bx	lr

08001034 <__aeabi_uldivmod>:
 8001034:	b94b      	cbnz	r3, 800104a <__aeabi_uldivmod+0x16>
 8001036:	b942      	cbnz	r2, 800104a <__aeabi_uldivmod+0x16>
 8001038:	2900      	cmp	r1, #0
 800103a:	bf08      	it	eq
 800103c:	2800      	cmpeq	r0, #0
 800103e:	d002      	beq.n	8001046 <__aeabi_uldivmod+0x12>
 8001040:	f04f 31ff 	mov.w	r1, #4294967295
 8001044:	4608      	mov	r0, r1
 8001046:	f000 b83b 	b.w	80010c0 <__aeabi_idiv0>
 800104a:	b082      	sub	sp, #8
 800104c:	46ec      	mov	ip, sp
 800104e:	e92d 5000 	stmdb	sp!, {ip, lr}
 8001052:	f000 f81d 	bl	8001090 <__gnu_uldivmod_helper>
 8001056:	f8dd e004 	ldr.w	lr, [sp, #4]
 800105a:	b002      	add	sp, #8
 800105c:	bc0c      	pop	{r2, r3}
 800105e:	4770      	bx	lr

08001060 <__gnu_ldivmod_helper>:
 8001060:	e92d 41f0 	stmdb	sp!, {r4, r5, r6, r7, r8, lr}
 8001064:	9c06      	ldr	r4, [sp, #24]
 8001066:	4615      	mov	r5, r2
 8001068:	4606      	mov	r6, r0
 800106a:	460f      	mov	r7, r1
 800106c:	4698      	mov	r8, r3
 800106e:	f000 f829 	bl	80010c4 <__divdi3>
 8001072:	fb05 f301 	mul.w	r3, r5, r1
 8001076:	fb00 3808 	mla	r8, r0, r8, r3
 800107a:	fba5 2300 	umull	r2, r3, r5, r0
 800107e:	1ab2      	subs	r2, r6, r2
 8001080:	4443      	add	r3, r8
 8001082:	eb67 0303 	sbc.w	r3, r7, r3
 8001086:	e9c4 2300 	strd	r2, r3, [r4]
 800108a:	e8bd 81f0 	ldmia.w	sp!, {r4, r5, r6, r7, r8, pc}
 800108e:	bf00      	nop

08001090 <__gnu_uldivmod_helper>:
 8001090:	e92d 41f0 	stmdb	sp!, {r4, r5, r6, r7, r8, lr}
 8001094:	9c06      	ldr	r4, [sp, #24]
 8001096:	4690      	mov	r8, r2
 8001098:	4606      	mov	r6, r0
 800109a:	460f      	mov	r7, r1
 800109c:	461d      	mov	r5, r3
 800109e:	f000 f95f 	bl	8001360 <__udivdi3>
 80010a2:	fb00 f505 	mul.w	r5, r0, r5
 80010a6:	fba0 2308 	umull	r2, r3, r0, r8
 80010aa:	fb08 5501 	mla	r5, r8, r1, r5
 80010ae:	1ab2      	subs	r2, r6, r2
 80010b0:	442b      	add	r3, r5
 80010b2:	eb67 0303 	sbc.w	r3, r7, r3
 80010b6:	e9c4 2300 	strd	r2, r3, [r4]
 80010ba:	e8bd 81f0 	ldmia.w	sp!, {r4, r5, r6, r7, r8, pc}
 80010be:	bf00      	nop

080010c0 <__aeabi_idiv0>:
 80010c0:	4770      	bx	lr
 80010c2:	bf00      	nop

080010c4 <__divdi3>:
 80010c4:	2900      	cmp	r1, #0
 80010c6:	e92d 43f0 	stmdb	sp!, {r4, r5, r6, r7, r8, r9, lr}
 80010ca:	f2c0 80a6 	blt.w	800121a <__divdi3+0x156>
 80010ce:	2600      	movs	r6, #0
 80010d0:	2b00      	cmp	r3, #0
 80010d2:	f2c0 809c 	blt.w	800120e <__divdi3+0x14a>
 80010d6:	4688      	mov	r8, r1
 80010d8:	4694      	mov	ip, r2
 80010da:	469e      	mov	lr, r3
 80010dc:	4615      	mov	r5, r2
 80010de:	4604      	mov	r4, r0
 80010e0:	460f      	mov	r7, r1
 80010e2:	2b00      	cmp	r3, #0
 80010e4:	d13d      	bne.n	8001162 <__divdi3+0x9e>
 80010e6:	428a      	cmp	r2, r1
 80010e8:	d959      	bls.n	800119e <__divdi3+0xda>
 80010ea:	fab2 f382 	clz	r3, r2
 80010ee:	b13b      	cbz	r3, 8001100 <__divdi3+0x3c>
 80010f0:	f1c3 0220 	rsb	r2, r3, #32
 80010f4:	409f      	lsls	r7, r3
 80010f6:	fa20 f202 	lsr.w	r2, r0, r2
 80010fa:	409d      	lsls	r5, r3
 80010fc:	4317      	orrs	r7, r2
 80010fe:	409c      	lsls	r4, r3
 8001100:	0c29      	lsrs	r1, r5, #16
 8001102:	0c22      	lsrs	r2, r4, #16
 8001104:	fbb7 fef1 	udiv	lr, r7, r1
 8001108:	b2a8      	uxth	r0, r5
 800110a:	fb01 771e 	mls	r7, r1, lr, r7
 800110e:	ea42 4707 	orr.w	r7, r2, r7, lsl #16
 8001112:	fb00 f30e 	mul.w	r3, r0, lr
 8001116:	42bb      	cmp	r3, r7
 8001118:	d90a      	bls.n	8001130 <__divdi3+0x6c>
 800111a:	197f      	adds	r7, r7, r5
 800111c:	f10e 32ff 	add.w	r2, lr, #4294967295
 8001120:	f080 8105 	bcs.w	800132e <__divdi3+0x26a>
 8001124:	42bb      	cmp	r3, r7
 8001126:	f240 8102 	bls.w	800132e <__divdi3+0x26a>
 800112a:	f1ae 0e02 	sub.w	lr, lr, #2
 800112e:	442f      	add	r7, r5
 8001130:	1aff      	subs	r7, r7, r3
 8001132:	b2a4      	uxth	r4, r4
 8001134:	fbb7 f3f1 	udiv	r3, r7, r1
 8001138:	fb01 7713 	mls	r7, r1, r3, r7
 800113c:	ea44 4707 	orr.w	r7, r4, r7, lsl #16
 8001140:	fb00 f003 	mul.w	r0, r0, r3
 8001144:	42b8      	cmp	r0, r7
 8001146:	d908      	bls.n	800115a <__divdi3+0x96>
 8001148:	197f      	adds	r7, r7, r5
 800114a:	f103 32ff 	add.w	r2, r3, #4294967295
 800114e:	f080 80f0 	bcs.w	8001332 <__divdi3+0x26e>
 8001152:	42b8      	cmp	r0, r7
 8001154:	f240 80ed 	bls.w	8001332 <__divdi3+0x26e>
 8001158:	3b02      	subs	r3, #2
 800115a:	ea43 430e 	orr.w	r3, r3, lr, lsl #16
 800115e:	2200      	movs	r2, #0
 8001160:	e003      	b.n	800116a <__divdi3+0xa6>
 8001162:	428b      	cmp	r3, r1
 8001164:	d90f      	bls.n	8001186 <__divdi3+0xc2>
 8001166:	2200      	movs	r2, #0
 8001168:	4613      	mov	r3, r2
 800116a:	1c34      	adds	r4, r6, #0
 800116c:	bf18      	it	ne
 800116e:	2401      	movne	r4, #1
 8001170:	4260      	negs	r0, r4
 8001172:	f04f 0500 	mov.w	r5, #0
 8001176:	eb65 0145 	sbc.w	r1, r5, r5, lsl #1
 800117a:	4058      	eors	r0, r3
 800117c:	4051      	eors	r1, r2
 800117e:	1900      	adds	r0, r0, r4
 8001180:	4169      	adcs	r1, r5
 8001182:	e8bd 83f0 	ldmia.w	sp!, {r4, r5, r6, r7, r8, r9, pc}
 8001186:	fab3 f283 	clz	r2, r3
 800118a:	2a00      	cmp	r2, #0
 800118c:	f040 8086 	bne.w	800129c <__divdi3+0x1d8>
 8001190:	428b      	cmp	r3, r1
 8001192:	d302      	bcc.n	800119a <__divdi3+0xd6>
 8001194:	4584      	cmp	ip, r0
 8001196:	f200 80db 	bhi.w	8001350 <__divdi3+0x28c>
 800119a:	2301      	movs	r3, #1
 800119c:	e7e5      	b.n	800116a <__divdi3+0xa6>
 800119e:	b912      	cbnz	r2, 80011a6 <__divdi3+0xe2>
 80011a0:	2301      	movs	r3, #1
 80011a2:	fbb3 f5f2 	udiv	r5, r3, r2
 80011a6:	fab5 f085 	clz	r0, r5
 80011aa:	2800      	cmp	r0, #0
 80011ac:	d13b      	bne.n	8001226 <__divdi3+0x162>
 80011ae:	1b78      	subs	r0, r7, r5
 80011b0:	ea4f 4e15 	mov.w	lr, r5, lsr #16
 80011b4:	fa1f fc85 	uxth.w	ip, r5
 80011b8:	2201      	movs	r2, #1
 80011ba:	fbb0 f8fe 	udiv	r8, r0, lr
 80011be:	0c21      	lsrs	r1, r4, #16
 80011c0:	fb0e 0718 	mls	r7, lr, r8, r0
 80011c4:	ea41 4707 	orr.w	r7, r1, r7, lsl #16
 80011c8:	fb0c f308 	mul.w	r3, ip, r8
 80011cc:	42bb      	cmp	r3, r7
 80011ce:	d907      	bls.n	80011e0 <__divdi3+0x11c>
 80011d0:	197f      	adds	r7, r7, r5
 80011d2:	f108 31ff 	add.w	r1, r8, #4294967295
 80011d6:	d202      	bcs.n	80011de <__divdi3+0x11a>
 80011d8:	42bb      	cmp	r3, r7
 80011da:	f200 80bd 	bhi.w	8001358 <__divdi3+0x294>
 80011de:	4688      	mov	r8, r1
 80011e0:	1aff      	subs	r7, r7, r3
 80011e2:	b2a4      	uxth	r4, r4
 80011e4:	fbb7 f3fe 	udiv	r3, r7, lr
 80011e8:	fb0e 7713 	mls	r7, lr, r3, r7
 80011ec:	ea44 4707 	orr.w	r7, r4, r7, lsl #16
 80011f0:	fb0c fc03 	mul.w	ip, ip, r3
 80011f4:	45bc      	cmp	ip, r7
 80011f6:	d907      	bls.n	8001208 <__divdi3+0x144>
 80011f8:	197f      	adds	r7, r7, r5
 80011fa:	f103 31ff 	add.w	r1, r3, #4294967295
 80011fe:	d202      	bcs.n	8001206 <__divdi3+0x142>
 8001200:	45bc      	cmp	ip, r7
 8001202:	f200 80a7 	bhi.w	8001354 <__divdi3+0x290>
 8001206:	460b      	mov	r3, r1
 8001208:	ea43 4308 	orr.w	r3, r3, r8, lsl #16
 800120c:	e7ad      	b.n	800116a <__divdi3+0xa6>
 800120e:	4252      	negs	r2, r2
 8001210:	ea6f 0606 	mvn.w	r6, r6
 8001214:	eb63 0343 	sbc.w	r3, r3, r3, lsl #1
 8001218:	e75d      	b.n	80010d6 <__divdi3+0x12>
 800121a:	4240      	negs	r0, r0
 800121c:	eb61 0141 	sbc.w	r1, r1, r1, lsl #1
 8001220:	f04f 36ff 	mov.w	r6, #4294967295
 8001224:	e754      	b.n	80010d0 <__divdi3+0xc>
 8001226:	f1c0 0220 	rsb	r2, r0, #32
 800122a:	fa24 f102 	lsr.w	r1, r4, r2
 800122e:	fa07 f300 	lsl.w	r3, r7, r0
 8001232:	4085      	lsls	r5, r0
 8001234:	ea4f 4e15 	mov.w	lr, r5, lsr #16
 8001238:	40d7      	lsrs	r7, r2
 800123a:	4319      	orrs	r1, r3
 800123c:	fbb7 f2fe 	udiv	r2, r7, lr
 8001240:	0c0b      	lsrs	r3, r1, #16
 8001242:	fb0e 7712 	mls	r7, lr, r2, r7
 8001246:	fa1f fc85 	uxth.w	ip, r5
 800124a:	ea43 4307 	orr.w	r3, r3, r7, lsl #16
 800124e:	fb0c f702 	mul.w	r7, ip, r2
 8001252:	429f      	cmp	r7, r3
 8001254:	fa04 f400 	lsl.w	r4, r4, r0
 8001258:	d907      	bls.n	800126a <__divdi3+0x1a6>
 800125a:	195b      	adds	r3, r3, r5
 800125c:	f102 30ff 	add.w	r0, r2, #4294967295
 8001260:	d274      	bcs.n	800134c <__divdi3+0x288>
 8001262:	429f      	cmp	r7, r3
 8001264:	d972      	bls.n	800134c <__divdi3+0x288>
 8001266:	3a02      	subs	r2, #2
 8001268:	442b      	add	r3, r5
 800126a:	1bdf      	subs	r7, r3, r7
 800126c:	b289      	uxth	r1, r1
 800126e:	fbb7 f8fe 	udiv	r8, r7, lr
 8001272:	fb0e 7318 	mls	r3, lr, r8, r7
 8001276:	ea41 4303 	orr.w	r3, r1, r3, lsl #16
 800127a:	fb0c f708 	mul.w	r7, ip, r8
 800127e:	429f      	cmp	r7, r3
 8001280:	d908      	bls.n	8001294 <__divdi3+0x1d0>
 8001282:	195b      	adds	r3, r3, r5
 8001284:	f108 31ff 	add.w	r1, r8, #4294967295
 8001288:	d25c      	bcs.n	8001344 <__divdi3+0x280>
 800128a:	429f      	cmp	r7, r3
 800128c:	d95a      	bls.n	8001344 <__divdi3+0x280>
 800128e:	f1a8 0802 	sub.w	r8, r8, #2
 8001292:	442b      	add	r3, r5
 8001294:	1bd8      	subs	r0, r3, r7
 8001296:	ea48 4202 	orr.w	r2, r8, r2, lsl #16
 800129a:	e78e      	b.n	80011ba <__divdi3+0xf6>
 800129c:	f1c2 0320 	rsb	r3, r2, #32
 80012a0:	fa2c f103 	lsr.w	r1, ip, r3
 80012a4:	fa0e fe02 	lsl.w	lr, lr, r2
 80012a8:	fa20 f703 	lsr.w	r7, r0, r3
 80012ac:	ea41 0e0e 	orr.w	lr, r1, lr
 80012b0:	fa08 f002 	lsl.w	r0, r8, r2
 80012b4:	fa28 f103 	lsr.w	r1, r8, r3
 80012b8:	ea4f 451e 	mov.w	r5, lr, lsr #16
 80012bc:	4338      	orrs	r0, r7
 80012be:	fbb1 f8f5 	udiv	r8, r1, r5
 80012c2:	0c03      	lsrs	r3, r0, #16
 80012c4:	fb05 1118 	mls	r1, r5, r8, r1
 80012c8:	fa1f f78e 	uxth.w	r7, lr
 80012cc:	ea43 4101 	orr.w	r1, r3, r1, lsl #16
 80012d0:	fb07 f308 	mul.w	r3, r7, r8
 80012d4:	428b      	cmp	r3, r1
 80012d6:	fa0c fc02 	lsl.w	ip, ip, r2
 80012da:	d909      	bls.n	80012f0 <__divdi3+0x22c>
 80012dc:	eb11 010e 	adds.w	r1, r1, lr
 80012e0:	f108 39ff 	add.w	r9, r8, #4294967295
 80012e4:	d230      	bcs.n	8001348 <__divdi3+0x284>
 80012e6:	428b      	cmp	r3, r1
 80012e8:	d92e      	bls.n	8001348 <__divdi3+0x284>
 80012ea:	f1a8 0802 	sub.w	r8, r8, #2
 80012ee:	4471      	add	r1, lr
 80012f0:	1ac9      	subs	r1, r1, r3
 80012f2:	b280      	uxth	r0, r0
 80012f4:	fbb1 f3f5 	udiv	r3, r1, r5
 80012f8:	fb05 1113 	mls	r1, r5, r3, r1
 80012fc:	ea40 4101 	orr.w	r1, r0, r1, lsl #16
 8001300:	fb07 f703 	mul.w	r7, r7, r3
 8001304:	428f      	cmp	r7, r1
 8001306:	d908      	bls.n	800131a <__divdi3+0x256>
 8001308:	eb11 010e 	adds.w	r1, r1, lr
 800130c:	f103 30ff 	add.w	r0, r3, #4294967295
 8001310:	d216      	bcs.n	8001340 <__divdi3+0x27c>
 8001312:	428f      	cmp	r7, r1
 8001314:	d914      	bls.n	8001340 <__divdi3+0x27c>
 8001316:	3b02      	subs	r3, #2
 8001318:	4471      	add	r1, lr
 800131a:	ea43 4308 	orr.w	r3, r3, r8, lsl #16
 800131e:	1bc9      	subs	r1, r1, r7
 8001320:	fba3 890c 	umull	r8, r9, r3, ip
 8001324:	4549      	cmp	r1, r9
 8001326:	d309      	bcc.n	800133c <__divdi3+0x278>
 8001328:	d005      	beq.n	8001336 <__divdi3+0x272>
 800132a:	2200      	movs	r2, #0
 800132c:	e71d      	b.n	800116a <__divdi3+0xa6>
 800132e:	4696      	mov	lr, r2
 8001330:	e6fe      	b.n	8001130 <__divdi3+0x6c>
 8001332:	4613      	mov	r3, r2
 8001334:	e711      	b.n	800115a <__divdi3+0x96>
 8001336:	4094      	lsls	r4, r2
 8001338:	4544      	cmp	r4, r8
 800133a:	d2f6      	bcs.n	800132a <__divdi3+0x266>
 800133c:	3b01      	subs	r3, #1
 800133e:	e7f4      	b.n	800132a <__divdi3+0x266>
 8001340:	4603      	mov	r3, r0
 8001342:	e7ea      	b.n	800131a <__divdi3+0x256>
 8001344:	4688      	mov	r8, r1
 8001346:	e7a5      	b.n	8001294 <__divdi3+0x1d0>
 8001348:	46c8      	mov	r8, r9
 800134a:	e7d1      	b.n	80012f0 <__divdi3+0x22c>
 800134c:	4602      	mov	r2, r0
 800134e:	e78c      	b.n	800126a <__divdi3+0x1a6>
 8001350:	4613      	mov	r3, r2
 8001352:	e70a      	b.n	800116a <__divdi3+0xa6>
 8001354:	3b02      	subs	r3, #2
 8001356:	e757      	b.n	8001208 <__divdi3+0x144>
 8001358:	f1a8 0802 	sub.w	r8, r8, #2
 800135c:	442f      	add	r7, r5
 800135e:	e73f      	b.n	80011e0 <__divdi3+0x11c>

08001360 <__udivdi3>:
 8001360:	e92d 41f0 	stmdb	sp!, {r4, r5, r6, r7, r8, lr}
 8001364:	2b00      	cmp	r3, #0
 8001366:	d144      	bne.n	80013f2 <__udivdi3+0x92>
 8001368:	428a      	cmp	r2, r1
 800136a:	4615      	mov	r5, r2
 800136c:	4604      	mov	r4, r0
 800136e:	d94f      	bls.n	8001410 <__udivdi3+0xb0>
 8001370:	fab2 f782 	clz	r7, r2
 8001374:	460e      	mov	r6, r1
 8001376:	b14f      	cbz	r7, 800138c <__udivdi3+0x2c>
 8001378:	f1c7 0320 	rsb	r3, r7, #32
 800137c:	40b9      	lsls	r1, r7
 800137e:	fa20 f603 	lsr.w	r6, r0, r3
 8001382:	fa02 f507 	lsl.w	r5, r2, r7
 8001386:	430e      	orrs	r6, r1
 8001388:	fa00 f407 	lsl.w	r4, r0, r7
 800138c:	ea4f 4e15 	mov.w	lr, r5, lsr #16
 8001390:	0c23      	lsrs	r3, r4, #16
 8001392:	fbb6 f0fe 	udiv	r0, r6, lr
 8001396:	b2af      	uxth	r7, r5
 8001398:	fb0e 6110 	mls	r1, lr, r0, r6
 800139c:	ea43 4301 	orr.w	r3, r3, r1, lsl #16
 80013a0:	fb07 f100 	mul.w	r1, r7, r0
 80013a4:	4299      	cmp	r1, r3
 80013a6:	d909      	bls.n	80013bc <__udivdi3+0x5c>
 80013a8:	195b      	adds	r3, r3, r5
 80013aa:	f100 32ff 	add.w	r2, r0, #4294967295
 80013ae:	f080 80ec 	bcs.w	800158a <__udivdi3+0x22a>
 80013b2:	4299      	cmp	r1, r3
 80013b4:	f240 80e9 	bls.w	800158a <__udivdi3+0x22a>
 80013b8:	3802      	subs	r0, #2
 80013ba:	442b      	add	r3, r5
 80013bc:	1a5a      	subs	r2, r3, r1
 80013be:	b2a4      	uxth	r4, r4
 80013c0:	fbb2 f3fe 	udiv	r3, r2, lr
 80013c4:	fb0e 2213 	mls	r2, lr, r3, r2
 80013c8:	ea44 4202 	orr.w	r2, r4, r2, lsl #16
 80013cc:	fb07 f703 	mul.w	r7, r7, r3
 80013d0:	4297      	cmp	r7, r2
 80013d2:	d908      	bls.n	80013e6 <__udivdi3+0x86>
 80013d4:	1952      	adds	r2, r2, r5
 80013d6:	f103 31ff 	add.w	r1, r3, #4294967295
 80013da:	f080 80d8 	bcs.w	800158e <__udivdi3+0x22e>
 80013de:	4297      	cmp	r7, r2
 80013e0:	f240 80d5 	bls.w	800158e <__udivdi3+0x22e>
 80013e4:	3b02      	subs	r3, #2
 80013e6:	ea43 4000 	orr.w	r0, r3, r0, lsl #16
 80013ea:	2600      	movs	r6, #0
 80013ec:	4631      	mov	r1, r6
 80013ee:	e8bd 81f0 	ldmia.w	sp!, {r4, r5, r6, r7, r8, pc}
 80013f2:	428b      	cmp	r3, r1
 80013f4:	d847      	bhi.n	8001486 <__udivdi3+0x126>
 80013f6:	fab3 f683 	clz	r6, r3
 80013fa:	2e00      	cmp	r6, #0
 80013fc:	d148      	bne.n	8001490 <__udivdi3+0x130>
 80013fe:	428b      	cmp	r3, r1
 8001400:	d302      	bcc.n	8001408 <__udivdi3+0xa8>
 8001402:	4282      	cmp	r2, r0
 8001404:	f200 80cd 	bhi.w	80015a2 <__udivdi3+0x242>
 8001408:	2001      	movs	r0, #1
 800140a:	4631      	mov	r1, r6
 800140c:	e8bd 81f0 	ldmia.w	sp!, {r4, r5, r6, r7, r8, pc}
 8001410:	b912      	cbnz	r2, 8001418 <__udivdi3+0xb8>
 8001412:	2501      	movs	r5, #1
 8001414:	fbb5 f5f2 	udiv	r5, r5, r2
 8001418:	fab5 f885 	clz	r8, r5
 800141c:	f1b8 0f00 	cmp.w	r8, #0
 8001420:	d177      	bne.n	8001512 <__udivdi3+0x1b2>
 8001422:	1b4a      	subs	r2, r1, r5
 8001424:	ea4f 4e15 	mov.w	lr, r5, lsr #16
 8001428:	b2af      	uxth	r7, r5
 800142a:	2601      	movs	r6, #1
 800142c:	fbb2 f0fe 	udiv	r0, r2, lr
 8001430:	0c23      	lsrs	r3, r4, #16
 8001432:	fb0e 2110 	mls	r1, lr, r0, r2
 8001436:	ea43 4101 	orr.w	r1, r3, r1, lsl #16
 800143a:	fb07 f300 	mul.w	r3, r7, r0
 800143e:	428b      	cmp	r3, r1
 8001440:	d907      	bls.n	8001452 <__udivdi3+0xf2>
 8001442:	1949      	adds	r1, r1, r5
 8001444:	f100 32ff 	add.w	r2, r0, #4294967295
 8001448:	d202      	bcs.n	8001450 <__udivdi3+0xf0>
 800144a:	428b      	cmp	r3, r1
 800144c:	f200 80ba 	bhi.w	80015c4 <__udivdi3+0x264>
 8001450:	4610      	mov	r0, r2
 8001452:	1ac9      	subs	r1, r1, r3
 8001454:	b2a4      	uxth	r4, r4
 8001456:	fbb1 f3fe 	udiv	r3, r1, lr
 800145a:	fb0e 1113 	mls	r1, lr, r3, r1
 800145e:	ea44 4401 	orr.w	r4, r4, r1, lsl #16
 8001462:	fb07 f703 	mul.w	r7, r7, r3
 8001466:	42a7      	cmp	r7, r4
 8001468:	d908      	bls.n	800147c <__udivdi3+0x11c>
 800146a:	1964      	adds	r4, r4, r5
 800146c:	f103 32ff 	add.w	r2, r3, #4294967295
 8001470:	f080 808f 	bcs.w	8001592 <__udivdi3+0x232>
 8001474:	42a7      	cmp	r7, r4
 8001476:	f240 808c 	bls.w	8001592 <__udivdi3+0x232>
 800147a:	3b02      	subs	r3, #2
 800147c:	ea43 4000 	orr.w	r0, r3, r0, lsl #16
 8001480:	4631      	mov	r1, r6
 8001482:	e8bd 81f0 	ldmia.w	sp!, {r4, r5, r6, r7, r8, pc}
 8001486:	2600      	movs	r6, #0
 8001488:	4630      	mov	r0, r6
 800148a:	4631      	mov	r1, r6
 800148c:	e8bd 81f0 	ldmia.w	sp!, {r4, r5, r6, r7, r8, pc}
 8001490:	f1c6 0420 	rsb	r4, r6, #32
 8001494:	fa22 f504 	lsr.w	r5, r2, r4
 8001498:	40b3      	lsls	r3, r6
 800149a:	432b      	orrs	r3, r5
 800149c:	fa20 fc04 	lsr.w	ip, r0, r4
 80014a0:	fa01 f706 	lsl.w	r7, r1, r6
 80014a4:	fa21 f504 	lsr.w	r5, r1, r4
 80014a8:	ea4f 4e13 	mov.w	lr, r3, lsr #16
 80014ac:	ea4c 0707 	orr.w	r7, ip, r7
 80014b0:	fbb5 f8fe 	udiv	r8, r5, lr
 80014b4:	0c39      	lsrs	r1, r7, #16
 80014b6:	fb0e 5518 	mls	r5, lr, r8, r5
 80014ba:	fa1f fc83 	uxth.w	ip, r3
 80014be:	ea41 4505 	orr.w	r5, r1, r5, lsl #16
 80014c2:	fb0c f108 	mul.w	r1, ip, r8
 80014c6:	42a9      	cmp	r1, r5
 80014c8:	fa02 f206 	lsl.w	r2, r2, r6
 80014cc:	d904      	bls.n	80014d8 <__udivdi3+0x178>
 80014ce:	18ed      	adds	r5, r5, r3
 80014d0:	f108 34ff 	add.w	r4, r8, #4294967295
 80014d4:	d367      	bcc.n	80015a6 <__udivdi3+0x246>
 80014d6:	46a0      	mov	r8, r4
 80014d8:	1a6d      	subs	r5, r5, r1
 80014da:	b2bf      	uxth	r7, r7
 80014dc:	fbb5 f4fe 	udiv	r4, r5, lr
 80014e0:	fb0e 5514 	mls	r5, lr, r4, r5
 80014e4:	ea47 4105 	orr.w	r1, r7, r5, lsl #16
 80014e8:	fb0c fc04 	mul.w	ip, ip, r4
 80014ec:	458c      	cmp	ip, r1
 80014ee:	d904      	bls.n	80014fa <__udivdi3+0x19a>
 80014f0:	18c9      	adds	r1, r1, r3
 80014f2:	f104 35ff 	add.w	r5, r4, #4294967295
 80014f6:	d35c      	bcc.n	80015b2 <__udivdi3+0x252>
 80014f8:	462c      	mov	r4, r5
 80014fa:	ea44 4408 	orr.w	r4, r4, r8, lsl #16
 80014fe:	ebcc 0101 	rsb	r1, ip, r1
 8001502:	fba4 2302 	umull	r2, r3, r4, r2
 8001506:	4299      	cmp	r1, r3
 8001508:	d348      	bcc.n	800159c <__udivdi3+0x23c>
 800150a:	d044      	beq.n	8001596 <__udivdi3+0x236>
 800150c:	4620      	mov	r0, r4
 800150e:	2600      	movs	r6, #0
 8001510:	e76c      	b.n	80013ec <__udivdi3+0x8c>
 8001512:	f1c8 0420 	rsb	r4, r8, #32
 8001516:	fa01 f308 	lsl.w	r3, r1, r8
 800151a:	fa05 f508 	lsl.w	r5, r5, r8
 800151e:	fa20 f704 	lsr.w	r7, r0, r4
 8001522:	40e1      	lsrs	r1, r4
 8001524:	ea4f 4e15 	mov.w	lr, r5, lsr #16
 8001528:	431f      	orrs	r7, r3
 800152a:	fbb1 f6fe 	udiv	r6, r1, lr
 800152e:	0c3a      	lsrs	r2, r7, #16
 8001530:	fb0e 1116 	mls	r1, lr, r6, r1
 8001534:	fa1f fc85 	uxth.w	ip, r5
 8001538:	ea42 4301 	orr.w	r3, r2, r1, lsl #16
 800153c:	fb0c f206 	mul.w	r2, ip, r6
 8001540:	429a      	cmp	r2, r3
 8001542:	fa00 f408 	lsl.w	r4, r0, r8
 8001546:	d907      	bls.n	8001558 <__udivdi3+0x1f8>
 8001548:	195b      	adds	r3, r3, r5
 800154a:	f106 31ff 	add.w	r1, r6, #4294967295
 800154e:	d237      	bcs.n	80015c0 <__udivdi3+0x260>
 8001550:	429a      	cmp	r2, r3
 8001552:	d935      	bls.n	80015c0 <__udivdi3+0x260>
 8001554:	3e02      	subs	r6, #2
 8001556:	442b      	add	r3, r5
 8001558:	1a9b      	subs	r3, r3, r2
 800155a:	b2bf      	uxth	r7, r7
 800155c:	fbb3 f0fe 	udiv	r0, r3, lr
 8001560:	fb0e 3310 	mls	r3, lr, r0, r3
 8001564:	ea47 4303 	orr.w	r3, r7, r3, lsl #16
 8001568:	fb0c f100 	mul.w	r1, ip, r0
 800156c:	4299      	cmp	r1, r3
 800156e:	d907      	bls.n	8001580 <__udivdi3+0x220>
 8001570:	195b      	adds	r3, r3, r5
 8001572:	f100 32ff 	add.w	r2, r0, #4294967295
 8001576:	d221      	bcs.n	80015bc <__udivdi3+0x25c>
 8001578:	4299      	cmp	r1, r3
 800157a:	d91f      	bls.n	80015bc <__udivdi3+0x25c>
 800157c:	3802      	subs	r0, #2
 800157e:	442b      	add	r3, r5
 8001580:	1a5a      	subs	r2, r3, r1
 8001582:	ea40 4606 	orr.w	r6, r0, r6, lsl #16
 8001586:	4667      	mov	r7, ip
 8001588:	e750      	b.n	800142c <__udivdi3+0xcc>
 800158a:	4610      	mov	r0, r2
 800158c:	e716      	b.n	80013bc <__udivdi3+0x5c>
 800158e:	460b      	mov	r3, r1
 8001590:	e729      	b.n	80013e6 <__udivdi3+0x86>
 8001592:	4613      	mov	r3, r2
 8001594:	e772      	b.n	800147c <__udivdi3+0x11c>
 8001596:	40b0      	lsls	r0, r6
 8001598:	4290      	cmp	r0, r2
 800159a:	d2b7      	bcs.n	800150c <__udivdi3+0x1ac>
 800159c:	1e60      	subs	r0, r4, #1
 800159e:	2600      	movs	r6, #0
 80015a0:	e724      	b.n	80013ec <__udivdi3+0x8c>
 80015a2:	4630      	mov	r0, r6
 80015a4:	e722      	b.n	80013ec <__udivdi3+0x8c>
 80015a6:	42a9      	cmp	r1, r5
 80015a8:	d995      	bls.n	80014d6 <__udivdi3+0x176>
 80015aa:	f1a8 0802 	sub.w	r8, r8, #2
 80015ae:	441d      	add	r5, r3
 80015b0:	e792      	b.n	80014d8 <__udivdi3+0x178>
 80015b2:	458c      	cmp	ip, r1
 80015b4:	d9a0      	bls.n	80014f8 <__udivdi3+0x198>
 80015b6:	3c02      	subs	r4, #2
 80015b8:	4419      	add	r1, r3
 80015ba:	e79e      	b.n	80014fa <__udivdi3+0x19a>
 80015bc:	4610      	mov	r0, r2
 80015be:	e7df      	b.n	8001580 <__udivdi3+0x220>
 80015c0:	460e      	mov	r6, r1
 80015c2:	e7c9      	b.n	8001558 <__udivdi3+0x1f8>
 80015c4:	3802      	subs	r0, #2
 80015c6:	4429      	add	r1, r5
 80015c8:	e743      	b.n	8001452 <__udivdi3+0xf2>
 80015ca:	bf00      	nop

080015cc <MATH_abs>:

//! \brief     Finds the absolute value 
//! \param[in] in   The input value
//! \return    The absolute value
static inline float_t MATH_abs(const float_t in)
{
 80015cc:	b480      	push	{r7}
 80015ce:	b085      	sub	sp, #20
 80015d0:	af00      	add	r7, sp, #0
 80015d2:	ed87 0a01 	vstr	s0, [r7, #4]
  float_t out = in;
 80015d6:	687b      	ldr	r3, [r7, #4]
 80015d8:	60fb      	str	r3, [r7, #12]


  if(in < 0.0f)
 80015da:	edd7 7a01 	vldr	s15, [r7, #4]
 80015de:	eef5 7ac0 	vcmpe.f32	s15, #0.0
 80015e2:	eef1 fa10 	vmrs	APSR_nzcv, fpscr
 80015e6:	d505      	bpl.n	80015f4 <MATH_abs+0x28>
    {
      out = -in;
 80015e8:	edd7 7a01 	vldr	s15, [r7, #4]
 80015ec:	eef1 7a67 	vneg.f32	s15, s15
 80015f0:	edc7 7a03 	vstr	s15, [r7, #12]
    }

  return(out);
 80015f4:	68fb      	ldr	r3, [r7, #12]
 80015f6:	ee07 3a90 	vmov	s15, r3
} // end of MATH_abs() function
 80015fa:	eeb0 0a67 	vmov.f32	s0, s15
 80015fe:	3714      	adds	r7, #20
 8001600:	46bd      	mov	sp, r7
 8001602:	f85d 7b04 	ldr.w	r7, [sp], #4
 8001606:	4770      	bx	lr

08001608 <INITPOSDET_Init>:

#include "modules/InitPosDet/InitPosDet.h"


INITPOSDET_Handle INITPOSDET_Init(void *pMemory, const size_t numBytes)//! \Mod By Dl.K
{
 8001608:	b480      	push	{r7}
 800160a:	b085      	sub	sp, #20
 800160c:	af00      	add	r7, sp, #0
 800160e:	6078      	str	r0, [r7, #4]
 8001610:	6039      	str	r1, [r7, #0]
	INITPOSDET_Handle handle;
	uint16_t i;

	if (numBytes < sizeof(INITPOSDET_Obj))
 8001612:	683b      	ldr	r3, [r7, #0]
 8001614:	2b5f      	cmp	r3, #95	; 0x5f
 8001616:	d801      	bhi.n	800161c <INITPOSDET_Init+0x14>
		return((INITPOSDET_Handle)NULL);
 8001618:	2300      	movs	r3, #0
 800161a:	e046      	b.n	80016aa <INITPOSDET_Init+0xa2>

	// assign the handle
	handle = (INITPOSDET_Handle)pMemory;
 800161c:	687b      	ldr	r3, [r7, #4]
 800161e:	60bb      	str	r3, [r7, #8]

	handle->InitPosDetFlag = true;
 8001620:	68bb      	ldr	r3, [r7, #8]
 8001622:	2201      	movs	r2, #1
 8001624:	801a      	strh	r2, [r3, #0]
	handle->InitPosAngleCount = 0;
 8001626:	68bb      	ldr	r3, [r7, #8]
 8001628:	2200      	movs	r2, #0
 800162a:	805a      	strh	r2, [r3, #2]
	handle->InitPosAngle = (0.0);
 800162c:	68bb      	ldr	r3, [r7, #8]
 800162e:	f04f 0200 	mov.w	r2, #0
 8001632:	605a      	str	r2, [r3, #4]
	handle->SubdivideAngle = (SUBDIVIDE_ANGLE_PU);
 8001634:	68bb      	ldr	r3, [r7, #8]
 8001636:	4a20      	ldr	r2, [pc, #128]	; (80016b8 <INITPOSDET_Init+0xb0>)
 8001638:	609a      	str	r2, [r3, #8]
	handle->VolVecAngleFlag = false;
 800163a:	68bb      	ldr	r3, [r7, #8]
 800163c:	2200      	movs	r2, #0
 800163e:	819a      	strh	r2, [r3, #12]
	handle->VolVecAngleCount = 0;
 8001640:	68bb      	ldr	r3, [r7, #8]
 8001642:	2200      	movs	r2, #0
 8001644:	81da      	strh	r2, [r3, #14]
	handle->VolVecAngle = (0.0);
 8001646:	68bb      	ldr	r3, [r7, #8]
 8001648:	f04f 0200 	mov.w	r2, #0
 800164c:	611a      	str	r2, [r3, #16]
	handle->VolVecAngleOffset = (-0.5);//-0.1666667
 800164e:	68bb      	ldr	r3, [r7, #8]
 8001650:	f04f 423f 	mov.w	r2, #3204448256	; 0xbf000000
 8001654:	615a      	str	r2, [r3, #20]
	handle->VolVecAngleIntervalTime = VOL_VEC_ANGLE_INTERVAL_TIME_SCLAR;
 8001656:	68bb      	ldr	r3, [r7, #8]
 8001658:	220a      	movs	r2, #10
 800165a:	831a      	strh	r2, [r3, #24]
	handle->IdSampAngleFlag = false;
 800165c:	68bb      	ldr	r3, [r7, #8]
 800165e:	2200      	movs	r2, #0
 8001660:	835a      	strh	r2, [r3, #26]
	handle->IdSampAngle = (0.0);
 8001662:	68bb      	ldr	r3, [r7, #8]
 8001664:	f04f 0200 	mov.w	r2, #0
 8001668:	61da      	str	r2, [r3, #28]
	handle->IdSampAngleCount = 0;
 800166a:	68bb      	ldr	r3, [r7, #8]
 800166c:	2200      	movs	r2, #0
 800166e:	841a      	strh	r2, [r3, #32]
	for (i = 0; i<VOL_VEC_ANGLE_SCLAR / 2; i++)
 8001670:	2300      	movs	r3, #0
 8001672:	81fb      	strh	r3, [r7, #14]
 8001674:	e00a      	b.n	800168c <INITPOSDET_Init+0x84>
	{
		handle->IdEvg[i] = (0.0);
 8001676:	89fb      	ldrh	r3, [r7, #14]
 8001678:	68ba      	ldr	r2, [r7, #8]
 800167a:	3308      	adds	r3, #8
 800167c:	009b      	lsls	r3, r3, #2
 800167e:	4413      	add	r3, r2
 8001680:	f04f 0200 	mov.w	r2, #0
 8001684:	605a      	str	r2, [r3, #4]
	handle->VolVecAngleOffset = (-0.5);//-0.1666667
	handle->VolVecAngleIntervalTime = VOL_VEC_ANGLE_INTERVAL_TIME_SCLAR;
	handle->IdSampAngleFlag = false;
	handle->IdSampAngle = (0.0);
	handle->IdSampAngleCount = 0;
	for (i = 0; i<VOL_VEC_ANGLE_SCLAR / 2; i++)
 8001686:	89fb      	ldrh	r3, [r7, #14]
 8001688:	3301      	adds	r3, #1
 800168a:	81fb      	strh	r3, [r7, #14]
 800168c:	89fb      	ldrh	r3, [r7, #14]
 800168e:	2b0b      	cmp	r3, #11
 8001690:	d9f1      	bls.n	8001676 <INITPOSDET_Init+0x6e>
	{
		handle->IdEvg[i] = (0.0);
	}
	handle->IdEvgCoeff = (1.0 / ID_EVG_SCLAR1);
 8001692:	68bb      	ldr	r3, [r7, #8]
 8001694:	4a09      	ldr	r2, [pc, #36]	; (80016bc <INITPOSDET_Init+0xb4>)
 8001696:	655a      	str	r2, [r3, #84]	; 0x54
	handle->IdEvgCount = 0;
 8001698:	68bb      	ldr	r3, [r7, #8]
 800169a:	2200      	movs	r2, #0
 800169c:	f8a3 2058 	strh.w	r2, [r3, #88]	; 0x58

	handle->IdEvgTmp = (0.0);
 80016a0:	68bb      	ldr	r3, [r7, #8]
 80016a2:	f04f 0200 	mov.w	r2, #0
 80016a6:	65da      	str	r2, [r3, #92]	; 0x5c

	return(handle);
 80016a8:	68bb      	ldr	r3, [r7, #8]
}
 80016aa:	4618      	mov	r0, r3
 80016ac:	3714      	adds	r7, #20
 80016ae:	46bd      	mov	sp, r7
 80016b0:	f85d 7b04 	ldr.w	r7, [sp], #4
 80016b4:	4770      	bx	lr
 80016b6:	bf00      	nop
 80016b8:	3daaaaa6 	.word	0x3daaaaa6
 80016bc:	3ca3d70a 	.word	0x3ca3d70a

080016c0 <BubbleSort>:


void BubbleSort(float_t a[], uint16_t b[],uint16_t size)
{
 80016c0:	b480      	push	{r7}
 80016c2:	b089      	sub	sp, #36	; 0x24
 80016c4:	af00      	add	r7, sp, #0
 80016c6:	60f8      	str	r0, [r7, #12]
 80016c8:	60b9      	str	r1, [r7, #8]
 80016ca:	4613      	mov	r3, r2
 80016cc:	80fb      	strh	r3, [r7, #6]
	uint16_t lastSwapPos = 0,lastSwapPosTemp = 0;
 80016ce:	2300      	movs	r3, #0
 80016d0:	833b      	strh	r3, [r7, #24]
 80016d2:	2300      	movs	r3, #0
 80016d4:	83fb      	strh	r3, [r7, #30]
	uint16_t i,j;
	float_t temp;
	uint16_t temp1;
    for (i = 0; i < size - 1; i++)
 80016d6:	2300      	movs	r3, #0
 80016d8:	83bb      	strh	r3, [r7, #28]
 80016da:	e062      	b.n	80017a2 <BubbleSort+0xe2>
    {
        lastSwapPos = lastSwapPosTemp;
 80016dc:	8bfb      	ldrh	r3, [r7, #30]
 80016de:	833b      	strh	r3, [r7, #24]
        for (j = size - 1; j >lastSwapPos; j--)
 80016e0:	88fb      	ldrh	r3, [r7, #6]
 80016e2:	3b01      	subs	r3, #1
 80016e4:	837b      	strh	r3, [r7, #26]
 80016e6:	e050      	b.n	800178a <BubbleSort+0xca>
        {
            if (a[j - 1] < a[j])
 80016e8:	8b7a      	ldrh	r2, [r7, #26]
 80016ea:	f06f 4340 	mvn.w	r3, #3221225472	; 0xc0000000
 80016ee:	4413      	add	r3, r2
 80016f0:	009b      	lsls	r3, r3, #2
 80016f2:	68fa      	ldr	r2, [r7, #12]
 80016f4:	4413      	add	r3, r2
 80016f6:	ed93 7a00 	vldr	s14, [r3]
 80016fa:	8b7b      	ldrh	r3, [r7, #26]
 80016fc:	009b      	lsls	r3, r3, #2
 80016fe:	68fa      	ldr	r2, [r7, #12]
 8001700:	4413      	add	r3, r2
 8001702:	edd3 7a00 	vldr	s15, [r3]
 8001706:	eeb4 7ae7 	vcmpe.f32	s14, s15
 800170a:	eef1 fa10 	vmrs	APSR_nzcv, fpscr
 800170e:	d539      	bpl.n	8001784 <BubbleSort+0xc4>
            {
            	temp = a[j - 1];
 8001710:	8b7a      	ldrh	r2, [r7, #26]
 8001712:	f06f 4340 	mvn.w	r3, #3221225472	; 0xc0000000
 8001716:	4413      	add	r3, r2
 8001718:	009b      	lsls	r3, r3, #2
 800171a:	68fa      	ldr	r2, [r7, #12]
 800171c:	4413      	add	r3, r2
 800171e:	681b      	ldr	r3, [r3, #0]
 8001720:	617b      	str	r3, [r7, #20]
                a[j - 1] = a[j];
 8001722:	8b7a      	ldrh	r2, [r7, #26]
 8001724:	f06f 4340 	mvn.w	r3, #3221225472	; 0xc0000000
 8001728:	4413      	add	r3, r2
 800172a:	009b      	lsls	r3, r3, #2
 800172c:	68fa      	ldr	r2, [r7, #12]
 800172e:	4413      	add	r3, r2
 8001730:	8b7a      	ldrh	r2, [r7, #26]
 8001732:	0092      	lsls	r2, r2, #2
 8001734:	68f9      	ldr	r1, [r7, #12]
 8001736:	440a      	add	r2, r1
 8001738:	6812      	ldr	r2, [r2, #0]
 800173a:	601a      	str	r2, [r3, #0]
                a[j] = temp;
 800173c:	8b7b      	ldrh	r3, [r7, #26]
 800173e:	009b      	lsls	r3, r3, #2
 8001740:	68fa      	ldr	r2, [r7, #12]
 8001742:	4413      	add	r3, r2
 8001744:	697a      	ldr	r2, [r7, #20]
 8001746:	601a      	str	r2, [r3, #0]

                temp1 = b[j - 1];
 8001748:	8b7a      	ldrh	r2, [r7, #26]
 800174a:	f06f 4300 	mvn.w	r3, #2147483648	; 0x80000000
 800174e:	4413      	add	r3, r2
 8001750:	005b      	lsls	r3, r3, #1
 8001752:	68ba      	ldr	r2, [r7, #8]
 8001754:	4413      	add	r3, r2
 8001756:	881b      	ldrh	r3, [r3, #0]
 8001758:	827b      	strh	r3, [r7, #18]
                b[j - 1] = b[j];
 800175a:	8b7a      	ldrh	r2, [r7, #26]
 800175c:	f06f 4300 	mvn.w	r3, #2147483648	; 0x80000000
 8001760:	4413      	add	r3, r2
 8001762:	005b      	lsls	r3, r3, #1
 8001764:	68ba      	ldr	r2, [r7, #8]
 8001766:	4413      	add	r3, r2
 8001768:	8b7a      	ldrh	r2, [r7, #26]
 800176a:	0052      	lsls	r2, r2, #1
 800176c:	68b9      	ldr	r1, [r7, #8]
 800176e:	440a      	add	r2, r1
 8001770:	8812      	ldrh	r2, [r2, #0]
 8001772:	801a      	strh	r2, [r3, #0]
                b[j] = temp1;
 8001774:	8b7b      	ldrh	r3, [r7, #26]
 8001776:	005b      	lsls	r3, r3, #1
 8001778:	68ba      	ldr	r2, [r7, #8]
 800177a:	4413      	add	r3, r2
 800177c:	8a7a      	ldrh	r2, [r7, #18]
 800177e:	801a      	strh	r2, [r3, #0]

                lastSwapPosTemp = j;
 8001780:	8b7b      	ldrh	r3, [r7, #26]
 8001782:	83fb      	strh	r3, [r7, #30]
	float_t temp;
	uint16_t temp1;
    for (i = 0; i < size - 1; i++)
    {
        lastSwapPos = lastSwapPosTemp;
        for (j = size - 1; j >lastSwapPos; j--)
 8001784:	8b7b      	ldrh	r3, [r7, #26]
 8001786:	3b01      	subs	r3, #1
 8001788:	837b      	strh	r3, [r7, #26]
 800178a:	8b7a      	ldrh	r2, [r7, #26]
 800178c:	8b3b      	ldrh	r3, [r7, #24]
 800178e:	429a      	cmp	r2, r3
 8001790:	d8aa      	bhi.n	80016e8 <BubbleSort+0x28>
                b[j] = temp1;

                lastSwapPosTemp = j;
            }
        }
        if (lastSwapPos == lastSwapPosTemp)break;
 8001792:	8b3a      	ldrh	r2, [r7, #24]
 8001794:	8bfb      	ldrh	r3, [r7, #30]
 8001796:	429a      	cmp	r2, r3
 8001798:	d100      	bne.n	800179c <BubbleSort+0xdc>
 800179a:	e007      	b.n	80017ac <BubbleSort+0xec>
{
	uint16_t lastSwapPos = 0,lastSwapPosTemp = 0;
	uint16_t i,j;
	float_t temp;
	uint16_t temp1;
    for (i = 0; i < size - 1; i++)
 800179c:	8bbb      	ldrh	r3, [r7, #28]
 800179e:	3301      	adds	r3, #1
 80017a0:	83bb      	strh	r3, [r7, #28]
 80017a2:	8bba      	ldrh	r2, [r7, #28]
 80017a4:	88fb      	ldrh	r3, [r7, #6]
 80017a6:	3b01      	subs	r3, #1
 80017a8:	429a      	cmp	r2, r3
 80017aa:	db97      	blt.n	80016dc <BubbleSort+0x1c>
                lastSwapPosTemp = j;
            }
        }
        if (lastSwapPos == lastSwapPosTemp)break;
    }
}
 80017ac:	3724      	adds	r7, #36	; 0x24
 80017ae:	46bd      	mov	sp, r7
 80017b0:	f85d 7b04 	ldr.w	r7, [sp], #4
 80017b4:	4770      	bx	lr
 80017b6:	bf00      	nop

080017b8 <MATH_UINT16_T_ABS>:

uint16_t MATH_UINT16_T_ABS(uint16_t a, uint16_t b)
{
 80017b8:	b480      	push	{r7}
 80017ba:	b083      	sub	sp, #12
 80017bc:	af00      	add	r7, sp, #0
 80017be:	4603      	mov	r3, r0
 80017c0:	460a      	mov	r2, r1
 80017c2:	80fb      	strh	r3, [r7, #6]
 80017c4:	4613      	mov	r3, r2
 80017c6:	80bb      	strh	r3, [r7, #4]
	if(a>b)
 80017c8:	88fa      	ldrh	r2, [r7, #6]
 80017ca:	88bb      	ldrh	r3, [r7, #4]
 80017cc:	429a      	cmp	r2, r3
 80017ce:	d904      	bls.n	80017da <MATH_UINT16_T_ABS+0x22>
		return a-b;
 80017d0:	88fa      	ldrh	r2, [r7, #6]
 80017d2:	88bb      	ldrh	r3, [r7, #4]
 80017d4:	1ad3      	subs	r3, r2, r3
 80017d6:	b29b      	uxth	r3, r3
 80017d8:	e003      	b.n	80017e2 <MATH_UINT16_T_ABS+0x2a>
	else
		return b-a;
 80017da:	88ba      	ldrh	r2, [r7, #4]
 80017dc:	88fb      	ldrh	r3, [r7, #6]
 80017de:	1ad3      	subs	r3, r2, r3
 80017e0:	b29b      	uxth	r3, r3
}
 80017e2:	4618      	mov	r0, r3
 80017e4:	370c      	adds	r7, #12
 80017e6:	46bd      	mov	sp, r7
 80017e8:	f85d 7b04 	ldr.w	r7, [sp], #4
 80017ec:	4770      	bx	lr
 80017ee:	bf00      	nop

080017f0 <INITPOSDET_Run>:

void INITPOSDET_Run(INITPOSDET_Handle handle, float_t value)
{
 80017f0:	b580      	push	{r7, lr}
 80017f2:	b08e      	sub	sp, #56	; 0x38
 80017f4:	af00      	add	r7, sp, #0
 80017f6:	6078      	str	r0, [r7, #4]
 80017f8:	ed87 0a00 	vstr	s0, [r7]
	INITPOSDET_Obj *obj = (INITPOSDET_Obj *)handle;
 80017fc:	687b      	ldr	r3, [r7, #4]
 80017fe:	633b      	str	r3, [r7, #48]	; 0x30
	uint16_t i,InitPosAngleCount_Evg,InitPosAngleCount_Min,InitPosAngleCount_Mid,InitPosAngleCount_Max,b[VOL_VEC_ANGLE_SCLAR/2]={0};
 8001800:	f107 030c 	add.w	r3, r7, #12
 8001804:	2200      	movs	r2, #0
 8001806:	601a      	str	r2, [r3, #0]
 8001808:	3304      	adds	r3, #4
 800180a:	2200      	movs	r2, #0
 800180c:	601a      	str	r2, [r3, #0]
 800180e:	3304      	adds	r3, #4
 8001810:	2200      	movs	r2, #0
 8001812:	601a      	str	r2, [r3, #0]
 8001814:	3304      	adds	r3, #4
 8001816:	2200      	movs	r2, #0
 8001818:	601a      	str	r2, [r3, #0]
 800181a:	3304      	adds	r3, #4
 800181c:	2200      	movs	r2, #0
 800181e:	601a      	str	r2, [r3, #0]
 8001820:	3304      	adds	r3, #4
 8001822:	2200      	movs	r2, #0
 8001824:	601a      	str	r2, [r3, #0]
 8001826:	3304      	adds	r3, #4

	if(obj->IdSampAngleFlag)
 8001828:	6b3b      	ldr	r3, [r7, #48]	; 0x30
 800182a:	8b5b      	ldrh	r3, [r3, #26]
 800182c:	2b00      	cmp	r3, #0
 800182e:	f000 81be 	beq.w	8001bae <INITPOSDET_Run+0x3be>
	{
		if( obj->IdEvgCount<ID_EVG_SCLAR1*VOL_VEC_ANGLE_SCLAR/2 )
 8001832:	6b3b      	ldr	r3, [r7, #48]	; 0x30
 8001834:	f8b3 3058 	ldrh.w	r3, [r3, #88]	; 0x58
 8001838:	f5b3 7f16 	cmp.w	r3, #600	; 0x258
 800183c:	f080 81b7 	bcs.w	8001bae <INITPOSDET_Run+0x3be>
		{
			if(obj->IdEvgCount>=ID_EVG_SCLAR2*VOL_VEC_ANGLE_SCLAR/2)// Need Improve
 8001840:	6b3b      	ldr	r3, [r7, #48]	; 0x30
 8001842:	f8b3 3058 	ldrh.w	r3, [r3, #88]	; 0x58
 8001846:	2b3b      	cmp	r3, #59	; 0x3b
 8001848:	d966      	bls.n	8001918 <INITPOSDET_Run+0x128>
			{
				float_t value_tmp = obj->IdEvg[obj->IdSampAngleCount]/(obj->IdEvgCount/(VOL_VEC_ANGLE_SCLAR/2));
 800184a:	6b3b      	ldr	r3, [r7, #48]	; 0x30
 800184c:	8c1b      	ldrh	r3, [r3, #32]
 800184e:	6b3a      	ldr	r2, [r7, #48]	; 0x30
 8001850:	3308      	adds	r3, #8
 8001852:	009b      	lsls	r3, r3, #2
 8001854:	4413      	add	r3, r2
 8001856:	ed93 7a01 	vldr	s14, [r3, #4]
 800185a:	6b3b      	ldr	r3, [r7, #48]	; 0x30
 800185c:	f8b3 3058 	ldrh.w	r3, [r3, #88]	; 0x58
 8001860:	4aa6      	ldr	r2, [pc, #664]	; (8001afc <INITPOSDET_Run+0x30c>)
 8001862:	fba2 2303 	umull	r2, r3, r2, r3
 8001866:	08db      	lsrs	r3, r3, #3
 8001868:	b29b      	uxth	r3, r3
 800186a:	ee07 3a90 	vmov	s15, r3
 800186e:	eef8 7ae7 	vcvt.f32.s32	s15, s15
 8001872:	eec7 7a27 	vdiv.f32	s15, s14, s15
 8001876:	edc7 7a0b 	vstr	s15, [r7, #44]	; 0x2c
				if( MATH_abs( value_tmp - (obj->IdEvgCoeff * value) )
 800187a:	6b3b      	ldr	r3, [r7, #48]	; 0x30
 800187c:	ed93 7a15 	vldr	s14, [r3, #84]	; 0x54
 8001880:	edd7 7a00 	vldr	s15, [r7]
 8001884:	ee67 7a27 	vmul.f32	s15, s14, s15
 8001888:	ed97 7a0b 	vldr	s14, [r7, #44]	; 0x2c
 800188c:	ee77 7a67 	vsub.f32	s15, s14, s15
 8001890:	eeb0 0a67 	vmov.f32	s0, s15
 8001894:	f7ff fe9a 	bl	80015cc <MATH_abs>
 8001898:	eef0 6a40 	vmov.f32	s13, s0
						> ((0.2f) * value_tmp) )
 800189c:	edd7 7a0b 	vldr	s15, [r7, #44]	; 0x2c
 80018a0:	ed9f 7a97 	vldr	s14, [pc, #604]	; 8001b00 <INITPOSDET_Run+0x310>
 80018a4:	ee67 7a87 	vmul.f32	s15, s15, s14
		if( obj->IdEvgCount<ID_EVG_SCLAR1*VOL_VEC_ANGLE_SCLAR/2 )
		{
			if(obj->IdEvgCount>=ID_EVG_SCLAR2*VOL_VEC_ANGLE_SCLAR/2)// Need Improve
			{
				float_t value_tmp = obj->IdEvg[obj->IdSampAngleCount]/(obj->IdEvgCount/(VOL_VEC_ANGLE_SCLAR/2));
				if( MATH_abs( value_tmp - (obj->IdEvgCoeff * value) )
 80018a8:	eef4 6ae7 	vcmpe.f32	s13, s15
 80018ac:	eef1 fa10 	vmrs	APSR_nzcv, fpscr
 80018b0:	dd16      	ble.n	80018e0 <INITPOSDET_Run+0xf0>
						> ((0.2f) * value_tmp) )
				{
					obj->IdEvg[obj->IdSampAngleCount] += value_tmp;
 80018b2:	6b3b      	ldr	r3, [r7, #48]	; 0x30
 80018b4:	8c1b      	ldrh	r3, [r3, #32]
 80018b6:	4619      	mov	r1, r3
 80018b8:	6b3b      	ldr	r3, [r7, #48]	; 0x30
 80018ba:	8c1b      	ldrh	r3, [r3, #32]
 80018bc:	6b3a      	ldr	r2, [r7, #48]	; 0x30
 80018be:	3308      	adds	r3, #8
 80018c0:	009b      	lsls	r3, r3, #2
 80018c2:	4413      	add	r3, r2
 80018c4:	ed93 7a01 	vldr	s14, [r3, #4]
 80018c8:	edd7 7a0b 	vldr	s15, [r7, #44]	; 0x2c
 80018cc:	ee77 7a27 	vadd.f32	s15, s14, s15
 80018d0:	6b3a      	ldr	r2, [r7, #48]	; 0x30
 80018d2:	f101 0308 	add.w	r3, r1, #8
 80018d6:	009b      	lsls	r3, r3, #2
 80018d8:	4413      	add	r3, r2
 80018da:	edc3 7a01 	vstr	s15, [r3, #4]
 80018de:	e036      	b.n	800194e <INITPOSDET_Run+0x15e>
				}
				else
				{
					obj->IdEvg[obj->IdSampAngleCount] += (obj->IdEvgCoeff * value);
 80018e0:	6b3b      	ldr	r3, [r7, #48]	; 0x30
 80018e2:	8c1b      	ldrh	r3, [r3, #32]
 80018e4:	4619      	mov	r1, r3
 80018e6:	6b3b      	ldr	r3, [r7, #48]	; 0x30
 80018e8:	8c1b      	ldrh	r3, [r3, #32]
 80018ea:	6b3a      	ldr	r2, [r7, #48]	; 0x30
 80018ec:	3308      	adds	r3, #8
 80018ee:	009b      	lsls	r3, r3, #2
 80018f0:	4413      	add	r3, r2
 80018f2:	ed93 7a01 	vldr	s14, [r3, #4]
 80018f6:	6b3b      	ldr	r3, [r7, #48]	; 0x30
 80018f8:	edd3 6a15 	vldr	s13, [r3, #84]	; 0x54
 80018fc:	edd7 7a00 	vldr	s15, [r7]
 8001900:	ee66 7aa7 	vmul.f32	s15, s13, s15
 8001904:	ee77 7a27 	vadd.f32	s15, s14, s15
 8001908:	6b3a      	ldr	r2, [r7, #48]	; 0x30
 800190a:	f101 0308 	add.w	r3, r1, #8
 800190e:	009b      	lsls	r3, r3, #2
 8001910:	4413      	add	r3, r2
 8001912:	edc3 7a01 	vstr	s15, [r3, #4]
 8001916:	e01a      	b.n	800194e <INITPOSDET_Run+0x15e>
				}
			}
			else
			{
				obj->IdEvg[obj->IdSampAngleCount] += (obj->IdEvgCoeff * value);
 8001918:	6b3b      	ldr	r3, [r7, #48]	; 0x30
 800191a:	8c1b      	ldrh	r3, [r3, #32]
 800191c:	4619      	mov	r1, r3
 800191e:	6b3b      	ldr	r3, [r7, #48]	; 0x30
 8001920:	8c1b      	ldrh	r3, [r3, #32]
 8001922:	6b3a      	ldr	r2, [r7, #48]	; 0x30
 8001924:	3308      	adds	r3, #8
 8001926:	009b      	lsls	r3, r3, #2
 8001928:	4413      	add	r3, r2
 800192a:	ed93 7a01 	vldr	s14, [r3, #4]
 800192e:	6b3b      	ldr	r3, [r7, #48]	; 0x30
 8001930:	edd3 6a15 	vldr	s13, [r3, #84]	; 0x54
 8001934:	edd7 7a00 	vldr	s15, [r7]
 8001938:	ee66 7aa7 	vmul.f32	s15, s13, s15
 800193c:	ee77 7a27 	vadd.f32	s15, s14, s15
 8001940:	6b3a      	ldr	r2, [r7, #48]	; 0x30
 8001942:	f101 0308 	add.w	r3, r1, #8
 8001946:	009b      	lsls	r3, r3, #2
 8001948:	4413      	add	r3, r2
 800194a:	edc3 7a01 	vstr	s15, [r3, #4]
			}

			obj->IdEvgCount++;
 800194e:	6b3b      	ldr	r3, [r7, #48]	; 0x30
 8001950:	f8b3 3058 	ldrh.w	r3, [r3, #88]	; 0x58
 8001954:	3301      	adds	r3, #1
 8001956:	b29a      	uxth	r2, r3
 8001958:	6b3b      	ldr	r3, [r7, #48]	; 0x30
 800195a:	f8a3 2058 	strh.w	r2, [r3, #88]	; 0x58

			if( obj->IdEvgCount>=ID_EVG_SCLAR1*VOL_VEC_ANGLE_SCLAR/2 )
 800195e:	6b3b      	ldr	r3, [r7, #48]	; 0x30
 8001960:	f8b3 3058 	ldrh.w	r3, [r3, #88]	; 0x58
 8001964:	f5b3 7f16 	cmp.w	r3, #600	; 0x258
 8001968:	f0c0 8121 	bcc.w	8001bae <INITPOSDET_Run+0x3be>
//						Id_max = obj->IdEvg[i];
//						obj->InitPosAngleCount = i;
//					}
//				}

				for(i=0;i<VOL_VEC_ANGLE_SCLAR/2;i++)
 800196c:	2300      	movs	r3, #0
 800196e:	86fb      	strh	r3, [r7, #54]	; 0x36
 8001970:	e00a      	b.n	8001988 <INITPOSDET_Run+0x198>
				{
					b[i]=i;
 8001972:	8efb      	ldrh	r3, [r7, #54]	; 0x36
 8001974:	005b      	lsls	r3, r3, #1
 8001976:	f107 0238 	add.w	r2, r7, #56	; 0x38
 800197a:	4413      	add	r3, r2
 800197c:	8efa      	ldrh	r2, [r7, #54]	; 0x36
 800197e:	f823 2c2c 	strh.w	r2, [r3, #-44]
//						Id_max = obj->IdEvg[i];
//						obj->InitPosAngleCount = i;
//					}
//				}

				for(i=0;i<VOL_VEC_ANGLE_SCLAR/2;i++)
 8001982:	8efb      	ldrh	r3, [r7, #54]	; 0x36
 8001984:	3301      	adds	r3, #1
 8001986:	86fb      	strh	r3, [r7, #54]	; 0x36
 8001988:	8efb      	ldrh	r3, [r7, #54]	; 0x36
 800198a:	2b0b      	cmp	r3, #11
 800198c:	d9f1      	bls.n	8001972 <INITPOSDET_Run+0x182>
				{
					b[i]=i;
					//obj->IdEvgArray[obj->ArrayCount][i]=obj->IdEvg[i];
				}

				obj->IdEvg[0]=0;obj->IdEvg[1]=2;obj->IdEvg[2]=4;obj->IdEvg[3]=6;obj->IdEvg[4]=8;obj->IdEvg[5]=10;
 800198e:	6b3b      	ldr	r3, [r7, #48]	; 0x30
 8001990:	f04f 0200 	mov.w	r2, #0
 8001994:	625a      	str	r2, [r3, #36]	; 0x24
 8001996:	6b3b      	ldr	r3, [r7, #48]	; 0x30
 8001998:	f04f 4280 	mov.w	r2, #1073741824	; 0x40000000
 800199c:	629a      	str	r2, [r3, #40]	; 0x28
 800199e:	6b3b      	ldr	r3, [r7, #48]	; 0x30
 80019a0:	f04f 4281 	mov.w	r2, #1082130432	; 0x40800000
 80019a4:	62da      	str	r2, [r3, #44]	; 0x2c
 80019a6:	6b3b      	ldr	r3, [r7, #48]	; 0x30
 80019a8:	4a56      	ldr	r2, [pc, #344]	; (8001b04 <INITPOSDET_Run+0x314>)
 80019aa:	631a      	str	r2, [r3, #48]	; 0x30
 80019ac:	6b3b      	ldr	r3, [r7, #48]	; 0x30
 80019ae:	f04f 4282 	mov.w	r2, #1090519040	; 0x41000000
 80019b2:	635a      	str	r2, [r3, #52]	; 0x34
 80019b4:	6b3b      	ldr	r3, [r7, #48]	; 0x30
 80019b6:	4a54      	ldr	r2, [pc, #336]	; (8001b08 <INITPOSDET_Run+0x318>)
 80019b8:	639a      	str	r2, [r3, #56]	; 0x38
				obj->IdEvg[6]=1;obj->IdEvg[7]=3;obj->IdEvg[8]=5;obj->IdEvg[9]=7;obj->IdEvg[10]=9;obj->IdEvg[11]=11;
 80019ba:	6b3b      	ldr	r3, [r7, #48]	; 0x30
 80019bc:	f04f 527e 	mov.w	r2, #1065353216	; 0x3f800000
 80019c0:	63da      	str	r2, [r3, #60]	; 0x3c
 80019c2:	6b3b      	ldr	r3, [r7, #48]	; 0x30
 80019c4:	4a51      	ldr	r2, [pc, #324]	; (8001b0c <INITPOSDET_Run+0x31c>)
 80019c6:	641a      	str	r2, [r3, #64]	; 0x40
 80019c8:	6b3b      	ldr	r3, [r7, #48]	; 0x30
 80019ca:	4a51      	ldr	r2, [pc, #324]	; (8001b10 <INITPOSDET_Run+0x320>)
 80019cc:	645a      	str	r2, [r3, #68]	; 0x44
 80019ce:	6b3b      	ldr	r3, [r7, #48]	; 0x30
 80019d0:	4a50      	ldr	r2, [pc, #320]	; (8001b14 <INITPOSDET_Run+0x324>)
 80019d2:	649a      	str	r2, [r3, #72]	; 0x48
 80019d4:	6b3b      	ldr	r3, [r7, #48]	; 0x30
 80019d6:	4a50      	ldr	r2, [pc, #320]	; (8001b18 <INITPOSDET_Run+0x328>)
 80019d8:	64da      	str	r2, [r3, #76]	; 0x4c
 80019da:	6b3b      	ldr	r3, [r7, #48]	; 0x30
 80019dc:	4a4f      	ldr	r2, [pc, #316]	; (8001b1c <INITPOSDET_Run+0x32c>)
 80019de:	651a      	str	r2, [r3, #80]	; 0x50
				BubbleSort(obj->IdEvg,b,VOL_VEC_ANGLE_SCLAR/2);
 80019e0:	6b3b      	ldr	r3, [r7, #48]	; 0x30
 80019e2:	f103 0224 	add.w	r2, r3, #36	; 0x24
 80019e6:	f107 030c 	add.w	r3, r7, #12
 80019ea:	4610      	mov	r0, r2
 80019ec:	4619      	mov	r1, r3
 80019ee:	220c      	movs	r2, #12
 80019f0:	f7ff fe66 	bl	80016c0 <BubbleSort>

				InitPosAngleCount_Evg = (b[0] + b[1] + b[2] + b[3] + b[4])/5;
 80019f4:	89bb      	ldrh	r3, [r7, #12]
 80019f6:	461a      	mov	r2, r3
 80019f8:	89fb      	ldrh	r3, [r7, #14]
 80019fa:	4413      	add	r3, r2
 80019fc:	8a3a      	ldrh	r2, [r7, #16]
 80019fe:	4413      	add	r3, r2
 8001a00:	8a7a      	ldrh	r2, [r7, #18]
 8001a02:	4413      	add	r3, r2
 8001a04:	8aba      	ldrh	r2, [r7, #20]
 8001a06:	4413      	add	r3, r2
 8001a08:	4a45      	ldr	r2, [pc, #276]	; (8001b20 <INITPOSDET_Run+0x330>)
 8001a0a:	fb82 1203 	smull	r1, r2, r2, r3
 8001a0e:	1052      	asrs	r2, r2, #1
 8001a10:	17db      	asrs	r3, r3, #31
 8001a12:	1ad3      	subs	r3, r2, r3
 8001a14:	857b      	strh	r3, [r7, #42]	; 0x2a
				InitPosAngleCount_Min = MATH_UINT16_T_ABS(b[0],InitPosAngleCount_Evg);
 8001a16:	89ba      	ldrh	r2, [r7, #12]
 8001a18:	8d7b      	ldrh	r3, [r7, #42]	; 0x2a
 8001a1a:	4610      	mov	r0, r2
 8001a1c:	4619      	mov	r1, r3
 8001a1e:	f7ff fecb 	bl	80017b8 <MATH_UINT16_T_ABS>
 8001a22:	4603      	mov	r3, r0
 8001a24:	853b      	strh	r3, [r7, #40]	; 0x28
				InitPosAngleCount_Mid = MATH_UINT16_T_ABS(b[1],InitPosAngleCount_Evg);
 8001a26:	89fa      	ldrh	r2, [r7, #14]
 8001a28:	8d7b      	ldrh	r3, [r7, #42]	; 0x2a
 8001a2a:	4610      	mov	r0, r2
 8001a2c:	4619      	mov	r1, r3
 8001a2e:	f7ff fec3 	bl	80017b8 <MATH_UINT16_T_ABS>
 8001a32:	4603      	mov	r3, r0
 8001a34:	84fb      	strh	r3, [r7, #38]	; 0x26
				InitPosAngleCount_Max = MATH_UINT16_T_ABS(b[2],InitPosAngleCount_Evg);
 8001a36:	8a3a      	ldrh	r2, [r7, #16]
 8001a38:	8d7b      	ldrh	r3, [r7, #42]	; 0x2a
 8001a3a:	4610      	mov	r0, r2
 8001a3c:	4619      	mov	r1, r3
 8001a3e:	f7ff febb 	bl	80017b8 <MATH_UINT16_T_ABS>
 8001a42:	4603      	mov	r3, r0
 8001a44:	84bb      	strh	r3, [r7, #36]	; 0x24
				if( InitPosAngleCount_Min < InitPosAngleCount_Mid && InitPosAngleCount_Min < InitPosAngleCount_Max )
 8001a46:	8d3a      	ldrh	r2, [r7, #40]	; 0x28
 8001a48:	8cfb      	ldrh	r3, [r7, #38]	; 0x26
 8001a4a:	429a      	cmp	r2, r3
 8001a4c:	d207      	bcs.n	8001a5e <INITPOSDET_Run+0x26e>
 8001a4e:	8d3a      	ldrh	r2, [r7, #40]	; 0x28
 8001a50:	8cbb      	ldrh	r3, [r7, #36]	; 0x24
 8001a52:	429a      	cmp	r2, r3
 8001a54:	d203      	bcs.n	8001a5e <INITPOSDET_Run+0x26e>
				{
					obj->InitPosAngleCount = b[0];
 8001a56:	89ba      	ldrh	r2, [r7, #12]
 8001a58:	6b3b      	ldr	r3, [r7, #48]	; 0x30
 8001a5a:	805a      	strh	r2, [r3, #2]
 8001a5c:	e016      	b.n	8001a8c <INITPOSDET_Run+0x29c>
				}
				else if( InitPosAngleCount_Mid < InitPosAngleCount_Min && InitPosAngleCount_Mid < InitPosAngleCount_Max )
 8001a5e:	8cfa      	ldrh	r2, [r7, #38]	; 0x26
 8001a60:	8d3b      	ldrh	r3, [r7, #40]	; 0x28
 8001a62:	429a      	cmp	r2, r3
 8001a64:	d207      	bcs.n	8001a76 <INITPOSDET_Run+0x286>
 8001a66:	8cfa      	ldrh	r2, [r7, #38]	; 0x26
 8001a68:	8cbb      	ldrh	r3, [r7, #36]	; 0x24
 8001a6a:	429a      	cmp	r2, r3
 8001a6c:	d203      	bcs.n	8001a76 <INITPOSDET_Run+0x286>
				{
					obj->InitPosAngleCount = b[1];
 8001a6e:	89fa      	ldrh	r2, [r7, #14]
 8001a70:	6b3b      	ldr	r3, [r7, #48]	; 0x30
 8001a72:	805a      	strh	r2, [r3, #2]
 8001a74:	e00a      	b.n	8001a8c <INITPOSDET_Run+0x29c>
				}
				else if( InitPosAngleCount_Max < InitPosAngleCount_Min && InitPosAngleCount_Max < InitPosAngleCount_Mid )
 8001a76:	8cba      	ldrh	r2, [r7, #36]	; 0x24
 8001a78:	8d3b      	ldrh	r3, [r7, #40]	; 0x28
 8001a7a:	429a      	cmp	r2, r3
 8001a7c:	d206      	bcs.n	8001a8c <INITPOSDET_Run+0x29c>
 8001a7e:	8cba      	ldrh	r2, [r7, #36]	; 0x24
 8001a80:	8cfb      	ldrh	r3, [r7, #38]	; 0x26
 8001a82:	429a      	cmp	r2, r3
 8001a84:	d202      	bcs.n	8001a8c <INITPOSDET_Run+0x29c>
				{
					obj->InitPosAngleCount = b[2];
 8001a86:	8a3a      	ldrh	r2, [r7, #16]
 8001a88:	6b3b      	ldr	r3, [r7, #48]	; 0x30
 8001a8a:	805a      	strh	r2, [r3, #2]
				}
				
				obj->InitPosAngle = obj->InitPosAngleCount*obj->SubdivideAngle + obj->VolVecAngleOffset;
 8001a8c:	6b3b      	ldr	r3, [r7, #48]	; 0x30
 8001a8e:	885b      	ldrh	r3, [r3, #2]
 8001a90:	ee07 3a90 	vmov	s15, r3
 8001a94:	eeb8 7ae7 	vcvt.f32.s32	s14, s15
 8001a98:	6b3b      	ldr	r3, [r7, #48]	; 0x30
 8001a9a:	edd3 7a02 	vldr	s15, [r3, #8]
 8001a9e:	ee27 7a27 	vmul.f32	s14, s14, s15
 8001aa2:	6b3b      	ldr	r3, [r7, #48]	; 0x30
 8001aa4:	edd3 7a05 	vldr	s15, [r3, #20]
 8001aa8:	ee77 7a27 	vadd.f32	s15, s14, s15
 8001aac:	6b3b      	ldr	r3, [r7, #48]	; 0x30
 8001aae:	edc3 7a01 	vstr	s15, [r3, #4]
				obj->VolVecAngleOffset = obj->InitPosAngle - obj->SubdivideAngle - obj->SubdivideAngle;
 8001ab2:	6b3b      	ldr	r3, [r7, #48]	; 0x30
 8001ab4:	ed93 7a01 	vldr	s14, [r3, #4]
 8001ab8:	6b3b      	ldr	r3, [r7, #48]	; 0x30
 8001aba:	edd3 7a02 	vldr	s15, [r3, #8]
 8001abe:	ee37 7a67 	vsub.f32	s14, s14, s15
 8001ac2:	6b3b      	ldr	r3, [r7, #48]	; 0x30
 8001ac4:	edd3 7a02 	vldr	s15, [r3, #8]
 8001ac8:	ee77 7a67 	vsub.f32	s15, s14, s15
 8001acc:	6b3b      	ldr	r3, [r7, #48]	; 0x30
 8001ace:	edc3 7a05 	vstr	s15, [r3, #20]
				if( obj->VolVecAngleOffset > (1.0f) )
 8001ad2:	6b3b      	ldr	r3, [r7, #48]	; 0x30
 8001ad4:	edd3 7a05 	vldr	s15, [r3, #20]
 8001ad8:	eeb7 7a00 	vmov.f32	s14, #112	; 0x70
 8001adc:	eef4 7ac7 	vcmpe.f32	s15, s14
 8001ae0:	eef1 fa10 	vmrs	APSR_nzcv, fpscr
 8001ae4:	dd22      	ble.n	8001b2c <INITPOSDET_Run+0x33c>
					obj->VolVecAngleOffset -= (1.0f);
 8001ae6:	6b3b      	ldr	r3, [r7, #48]	; 0x30
 8001ae8:	edd3 7a05 	vldr	s15, [r3, #20]
 8001aec:	eeb7 7a00 	vmov.f32	s14, #112	; 0x70
 8001af0:	ee77 7ac7 	vsub.f32	s15, s15, s14
 8001af4:	6b3b      	ldr	r3, [r7, #48]	; 0x30
 8001af6:	edc3 7a05 	vstr	s15, [r3, #20]
 8001afa:	e02b      	b.n	8001b54 <INITPOSDET_Run+0x364>
 8001afc:	aaaaaaab 	.word	0xaaaaaaab
 8001b00:	3e4ccccd 	.word	0x3e4ccccd
 8001b04:	40c00000 	.word	0x40c00000
 8001b08:	41200000 	.word	0x41200000
 8001b0c:	40400000 	.word	0x40400000
 8001b10:	40a00000 	.word	0x40a00000
 8001b14:	40e00000 	.word	0x40e00000
 8001b18:	41100000 	.word	0x41100000
 8001b1c:	41300000 	.word	0x41300000
 8001b20:	66666667 	.word	0x66666667
 8001b24:	3eaaaa9f 	.word	0x3eaaaa9f
 8001b28:	3c23d70a 	.word	0x3c23d70a
				else if( obj->VolVecAngleOffset < (-1.0f) )
 8001b2c:	6b3b      	ldr	r3, [r7, #48]	; 0x30
 8001b2e:	edd3 7a05 	vldr	s15, [r3, #20]
 8001b32:	eebf 7a00 	vmov.f32	s14, #240	; 0xf0
 8001b36:	eef4 7ac7 	vcmpe.f32	s15, s14
 8001b3a:	eef1 fa10 	vmrs	APSR_nzcv, fpscr
 8001b3e:	d509      	bpl.n	8001b54 <INITPOSDET_Run+0x364>
					obj->VolVecAngleOffset += (1.0f);
 8001b40:	6b3b      	ldr	r3, [r7, #48]	; 0x30
 8001b42:	edd3 7a05 	vldr	s15, [r3, #20]
 8001b46:	eeb7 7a00 	vmov.f32	s14, #112	; 0x70
 8001b4a:	ee77 7a87 	vadd.f32	s15, s15, s14
 8001b4e:	6b3b      	ldr	r3, [r7, #48]	; 0x30
 8001b50:	edc3 7a05 	vstr	s15, [r3, #20]
				obj->SubdivideAngle = (obj->SubdivideAngle * (0.333333f));//(0.5f) Test:(1.0f)
 8001b54:	6b3b      	ldr	r3, [r7, #48]	; 0x30
 8001b56:	edd3 7a02 	vldr	s15, [r3, #8]
 8001b5a:	ed1f 7a0e 	vldr	s14, [pc, #-56]	; 8001b24 <INITPOSDET_Run+0x334>
 8001b5e:	ee67 7a87 	vmul.f32	s15, s15, s14
 8001b62:	6b3b      	ldr	r3, [r7, #48]	; 0x30
 8001b64:	edc3 7a02 	vstr	s15, [r3, #8]
				if( obj->SubdivideAngle < (0.01f) )// 0.005f Test: 0.01f
 8001b68:	6b3b      	ldr	r3, [r7, #48]	; 0x30
 8001b6a:	edd3 7a02 	vldr	s15, [r3, #8]
 8001b6e:	ed1f 7a12 	vldr	s14, [pc, #-72]	; 8001b28 <INITPOSDET_Run+0x338>
 8001b72:	eef4 7ac7 	vcmpe.f32	s15, s14
 8001b76:	eef1 fa10 	vmrs	APSR_nzcv, fpscr
 8001b7a:	d503      	bpl.n	8001b84 <INITPOSDET_Run+0x394>
				{
					obj->InitPosDetFlag = false;
 8001b7c:	6b3b      	ldr	r3, [r7, #48]	; 0x30
 8001b7e:	2200      	movs	r2, #0
 8001b80:	801a      	strh	r2, [r3, #0]
 8001b82:	e014      	b.n	8001bae <INITPOSDET_Run+0x3be>
				}
				else
				{
					obj->IdEvgCount = 0;
 8001b84:	6b3b      	ldr	r3, [r7, #48]	; 0x30
 8001b86:	2200      	movs	r2, #0
 8001b88:	f8a3 2058 	strh.w	r2, [r3, #88]	; 0x58
					for(i=0;i<VOL_VEC_ANGLE_SCLAR/2;i++)
 8001b8c:	2300      	movs	r3, #0
 8001b8e:	86fb      	strh	r3, [r7, #54]	; 0x36
 8001b90:	e00a      	b.n	8001ba8 <INITPOSDET_Run+0x3b8>
					{
						obj->IdEvg[i] = (0.0f);
 8001b92:	8efb      	ldrh	r3, [r7, #54]	; 0x36
 8001b94:	6b3a      	ldr	r2, [r7, #48]	; 0x30
 8001b96:	3308      	adds	r3, #8
 8001b98:	009b      	lsls	r3, r3, #2
 8001b9a:	4413      	add	r3, r2
 8001b9c:	f04f 0200 	mov.w	r2, #0
 8001ba0:	605a      	str	r2, [r3, #4]
					obj->InitPosDetFlag = false;
				}
				else
				{
					obj->IdEvgCount = 0;
					for(i=0;i<VOL_VEC_ANGLE_SCLAR/2;i++)
 8001ba2:	8efb      	ldrh	r3, [r7, #54]	; 0x36
 8001ba4:	3301      	adds	r3, #1
 8001ba6:	86fb      	strh	r3, [r7, #54]	; 0x36
 8001ba8:	8efb      	ldrh	r3, [r7, #54]	; 0x36
 8001baa:	2b0b      	cmp	r3, #11
 8001bac:	d9f1      	bls.n	8001b92 <INITPOSDET_Run+0x3a2>
//				obj->IdEvgCount = 0;
			}
		}
	}

	return;
 8001bae:	bf00      	nop
}
 8001bb0:	3738      	adds	r7, #56	; 0x38
 8001bb2:	46bd      	mov	sp, r7
 8001bb4:	bd80      	pop	{r7, pc}
 8001bb6:	bf00      	nop

08001bb8 <INITPOSDET_VolVecAngleRun>:


void INITPOSDET_VolVecAngleRun(INITPOSDET_Handle handle)
{
 8001bb8:	b480      	push	{r7}
 8001bba:	b085      	sub	sp, #20
 8001bbc:	af00      	add	r7, sp, #0
 8001bbe:	6078      	str	r0, [r7, #4]
	INITPOSDET_Obj *obj = (INITPOSDET_Obj *)handle;
 8001bc0:	687b      	ldr	r3, [r7, #4]
 8001bc2:	60fb      	str	r3, [r7, #12]
	uint16_t count_temp = 0;
 8001bc4:	2300      	movs	r3, #0
 8001bc6:	817b      	strh	r3, [r7, #10]

	if(obj->InitPosDetFlag)
 8001bc8:	68fb      	ldr	r3, [r7, #12]
 8001bca:	881b      	ldrh	r3, [r3, #0]
 8001bcc:	2b00      	cmp	r3, #0
 8001bce:	f000 8087 	beq.w	8001ce0 <INITPOSDET_VolVecAngleRun+0x128>
	{
		if( obj->VolVecAngleIntervalTime >= VOL_VEC_ANGLE_INTERVAL_TIME_SCLAR )
 8001bd2:	68fb      	ldr	r3, [r7, #12]
 8001bd4:	8b1b      	ldrh	r3, [r3, #24]
 8001bd6:	2b09      	cmp	r3, #9
 8001bd8:	d975      	bls.n	8001cc6 <INITPOSDET_VolVecAngleRun+0x10e>
		{
			if( obj->VolVecAngleCount < VOL_VEC_ANGLE_SCLAR )
 8001bda:	68fb      	ldr	r3, [r7, #12]
 8001bdc:	89db      	ldrh	r3, [r3, #14]
 8001bde:	2b17      	cmp	r3, #23
 8001be0:	f200 8084 	bhi.w	8001cec <INITPOSDET_VolVecAngleRun+0x134>
			{
				count_temp = obj->VolVecAngleCount / 2;
 8001be4:	68fb      	ldr	r3, [r7, #12]
 8001be6:	89db      	ldrh	r3, [r3, #14]
 8001be8:	085b      	lsrs	r3, r3, #1
 8001bea:	817b      	strh	r3, [r7, #10]
				obj->VolVecAngle = count_temp * obj->SubdivideAngle + obj->VolVecAngleOffset;
 8001bec:	897b      	ldrh	r3, [r7, #10]
 8001bee:	ee07 3a90 	vmov	s15, r3
 8001bf2:	eeb8 7ae7 	vcvt.f32.s32	s14, s15
 8001bf6:	68fb      	ldr	r3, [r7, #12]
 8001bf8:	edd3 7a02 	vldr	s15, [r3, #8]
 8001bfc:	ee27 7a27 	vmul.f32	s14, s14, s15
 8001c00:	68fb      	ldr	r3, [r7, #12]
 8001c02:	edd3 7a05 	vldr	s15, [r3, #20]
 8001c06:	ee77 7a27 	vadd.f32	s15, s14, s15
 8001c0a:	68fb      	ldr	r3, [r7, #12]
 8001c0c:	edc3 7a04 	vstr	s15, [r3, #16]
				obj->IdSampAngle = obj->VolVecAngle;
 8001c10:	68fb      	ldr	r3, [r7, #12]
 8001c12:	691a      	ldr	r2, [r3, #16]
 8001c14:	68fb      	ldr	r3, [r7, #12]
 8001c16:	61da      	str	r2, [r3, #28]
				obj->IdSampAngleFlag = false;
 8001c18:	68fb      	ldr	r3, [r7, #12]
 8001c1a:	2200      	movs	r2, #0
 8001c1c:	835a      	strh	r2, [r3, #26]
				obj->IdSampAngleCount = count_temp;
 8001c1e:	68fb      	ldr	r3, [r7, #12]
 8001c20:	897a      	ldrh	r2, [r7, #10]
 8001c22:	841a      	strh	r2, [r3, #32]
				if( obj->VolVecAngleCount %2 == 1 )
 8001c24:	68fb      	ldr	r3, [r7, #12]
 8001c26:	89db      	ldrh	r3, [r3, #14]
 8001c28:	f003 0301 	and.w	r3, r3, #1
 8001c2c:	b29b      	uxth	r3, r3
 8001c2e:	2b00      	cmp	r3, #0
 8001c30:	d00f      	beq.n	8001c52 <INITPOSDET_VolVecAngleRun+0x9a>
				{
					obj->VolVecAngle += (0.5f);
 8001c32:	68fb      	ldr	r3, [r7, #12]
 8001c34:	edd3 7a04 	vldr	s15, [r3, #16]
 8001c38:	eeb6 7a00 	vmov.f32	s14, #96	; 0x60
 8001c3c:	ee77 7a87 	vadd.f32	s15, s15, s14
 8001c40:	68fb      	ldr	r3, [r7, #12]
 8001c42:	edc3 7a04 	vstr	s15, [r3, #16]
					obj->VolVecAngleIntervalTime = 1;
 8001c46:	68fb      	ldr	r3, [r7, #12]
 8001c48:	2201      	movs	r2, #1
 8001c4a:	831a      	strh	r2, [r3, #24]
					obj->IdSampAngleFlag = true;
 8001c4c:	68fb      	ldr	r3, [r7, #12]
 8001c4e:	2201      	movs	r2, #1
 8001c50:	835a      	strh	r2, [r3, #26]
				}
				if( obj->VolVecAngle > (1.0f) )
 8001c52:	68fb      	ldr	r3, [r7, #12]
 8001c54:	edd3 7a04 	vldr	s15, [r3, #16]
 8001c58:	eeb7 7a00 	vmov.f32	s14, #112	; 0x70
 8001c5c:	eef4 7ac7 	vcmpe.f32	s15, s14
 8001c60:	eef1 fa10 	vmrs	APSR_nzcv, fpscr
 8001c64:	dd0a      	ble.n	8001c7c <INITPOSDET_VolVecAngleRun+0xc4>
					obj->VolVecAngle -= (1.0f);
 8001c66:	68fb      	ldr	r3, [r7, #12]
 8001c68:	edd3 7a04 	vldr	s15, [r3, #16]
 8001c6c:	eeb7 7a00 	vmov.f32	s14, #112	; 0x70
 8001c70:	ee77 7ac7 	vsub.f32	s15, s15, s14
 8001c74:	68fb      	ldr	r3, [r7, #12]
 8001c76:	edc3 7a04 	vstr	s15, [r3, #16]
 8001c7a:	e013      	b.n	8001ca4 <INITPOSDET_VolVecAngleRun+0xec>
				else if( obj->VolVecAngle < (-1.0f) )
 8001c7c:	68fb      	ldr	r3, [r7, #12]
 8001c7e:	edd3 7a04 	vldr	s15, [r3, #16]
 8001c82:	eebf 7a00 	vmov.f32	s14, #240	; 0xf0
 8001c86:	eef4 7ac7 	vcmpe.f32	s15, s14
 8001c8a:	eef1 fa10 	vmrs	APSR_nzcv, fpscr
 8001c8e:	d509      	bpl.n	8001ca4 <INITPOSDET_VolVecAngleRun+0xec>
					obj->VolVecAngle += (1.0f);
 8001c90:	68fb      	ldr	r3, [r7, #12]
 8001c92:	edd3 7a04 	vldr	s15, [r3, #16]
 8001c96:	eeb7 7a00 	vmov.f32	s14, #112	; 0x70
 8001c9a:	ee77 7a87 	vadd.f32	s15, s15, s14
 8001c9e:	68fb      	ldr	r3, [r7, #12]
 8001ca0:	edc3 7a04 	vstr	s15, [r3, #16]

				obj->VolVecAngleCount++;
 8001ca4:	68fb      	ldr	r3, [r7, #12]
 8001ca6:	89db      	ldrh	r3, [r3, #14]
 8001ca8:	3301      	adds	r3, #1
 8001caa:	b29a      	uxth	r2, r3
 8001cac:	68fb      	ldr	r3, [r7, #12]
 8001cae:	81da      	strh	r2, [r3, #14]

				obj->VolVecAngleFlag = true;
 8001cb0:	68fb      	ldr	r3, [r7, #12]
 8001cb2:	2201      	movs	r2, #1
 8001cb4:	819a      	strh	r2, [r3, #12]

				if( obj->VolVecAngleCount >= VOL_VEC_ANGLE_SCLAR )
 8001cb6:	68fb      	ldr	r3, [r7, #12]
 8001cb8:	89db      	ldrh	r3, [r3, #14]
 8001cba:	2b17      	cmp	r3, #23
 8001cbc:	d916      	bls.n	8001cec <INITPOSDET_VolVecAngleRun+0x134>
				{
					obj->VolVecAngleCount=0;
 8001cbe:	68fb      	ldr	r3, [r7, #12]
 8001cc0:	2200      	movs	r2, #0
 8001cc2:	81da      	strh	r2, [r3, #14]
 8001cc4:	e012      	b.n	8001cec <INITPOSDET_VolVecAngleRun+0x134>
				}
			}
		}
		else
		{
			obj->VolVecAngleIntervalTime++;
 8001cc6:	68fb      	ldr	r3, [r7, #12]
 8001cc8:	8b1b      	ldrh	r3, [r3, #24]
 8001cca:	3301      	adds	r3, #1
 8001ccc:	b29a      	uxth	r2, r3
 8001cce:	68fb      	ldr	r3, [r7, #12]
 8001cd0:	831a      	strh	r2, [r3, #24]
			obj->VolVecAngleFlag = false;
 8001cd2:	68fb      	ldr	r3, [r7, #12]
 8001cd4:	2200      	movs	r2, #0
 8001cd6:	819a      	strh	r2, [r3, #12]
			obj->IdSampAngleFlag = false;
 8001cd8:	68fb      	ldr	r3, [r7, #12]
 8001cda:	2200      	movs	r2, #0
 8001cdc:	835a      	strh	r2, [r3, #26]
	else
	{
		obj->VolVecAngleFlag = false;
		obj->IdSampAngleFlag = false;
	}
	return;
 8001cde:	e006      	b.n	8001cee <INITPOSDET_VolVecAngleRun+0x136>
			obj->IdSampAngleFlag = false;
		}
	}
	else
	{
		obj->VolVecAngleFlag = false;
 8001ce0:	68fb      	ldr	r3, [r7, #12]
 8001ce2:	2200      	movs	r2, #0
 8001ce4:	819a      	strh	r2, [r3, #12]
		obj->IdSampAngleFlag = false;
 8001ce6:	68fb      	ldr	r3, [r7, #12]
 8001ce8:	2200      	movs	r2, #0
 8001cea:	835a      	strh	r2, [r3, #26]
	}
	return;
 8001cec:	bf00      	nop
}
 8001cee:	3714      	adds	r7, #20
 8001cf0:	46bd      	mov	sp, r7
 8001cf2:	f85d 7b04 	ldr.w	r7, [sp], #4
 8001cf6:	4770      	bx	lr

08001cf8 <MATH_sat>:
//! \param[in] in   The input value
//! \param[in] max  The maximum value allowed
//! \param[in] min  The minimum value allowed
//! \return    The saturated value
static inline float_t MATH_sat(const float_t in,const float_t max,const float_t min)
{
 8001cf8:	b480      	push	{r7}
 8001cfa:	b087      	sub	sp, #28
 8001cfc:	af00      	add	r7, sp, #0
 8001cfe:	ed87 0a03 	vstr	s0, [r7, #12]
 8001d02:	edc7 0a02 	vstr	s1, [r7, #8]
 8001d06:	ed87 1a01 	vstr	s2, [r7, #4]
  float_t out = in;
 8001d0a:	68fb      	ldr	r3, [r7, #12]
 8001d0c:	617b      	str	r3, [r7, #20]


  if(in < min)
 8001d0e:	ed97 7a03 	vldr	s14, [r7, #12]
 8001d12:	edd7 7a01 	vldr	s15, [r7, #4]
 8001d16:	eeb4 7ae7 	vcmpe.f32	s14, s15
 8001d1a:	eef1 fa10 	vmrs	APSR_nzcv, fpscr
 8001d1e:	d502      	bpl.n	8001d26 <MATH_sat+0x2e>
    {
      out = min;
 8001d20:	687b      	ldr	r3, [r7, #4]
 8001d22:	617b      	str	r3, [r7, #20]
 8001d24:	e00a      	b.n	8001d3c <MATH_sat+0x44>
    }
  else if(in > max)
 8001d26:	ed97 7a03 	vldr	s14, [r7, #12]
 8001d2a:	edd7 7a02 	vldr	s15, [r7, #8]
 8001d2e:	eeb4 7ae7 	vcmpe.f32	s14, s15
 8001d32:	eef1 fa10 	vmrs	APSR_nzcv, fpscr
 8001d36:	dd01      	ble.n	8001d3c <MATH_sat+0x44>
    {
      out = max;
 8001d38:	68bb      	ldr	r3, [r7, #8]
 8001d3a:	617b      	str	r3, [r7, #20]
    }

  return(out);
 8001d3c:	697b      	ldr	r3, [r7, #20]
 8001d3e:	ee07 3a90 	vmov	s15, r3
} // end of MATH_sat() function
 8001d42:	eeb0 0a67 	vmov.f32	s0, s15
 8001d46:	371c      	adds	r7, #28
 8001d48:	46bd      	mov	sp, r7
 8001d4a:	f85d 7b04 	ldr.w	r7, [sp], #4
 8001d4e:	4770      	bx	lr

08001d50 <DATA_TXD_Status>:
	}
	else return true;
}

static inline uint8_t DATA_TXD_Status(DATA_RTXD_Handle handle)
{
 8001d50:	b480      	push	{r7}
 8001d52:	b085      	sub	sp, #20
 8001d54:	af00      	add	r7, sp, #0
 8001d56:	6078      	str	r0, [r7, #4]
	DATA_RTXD_Obj *obj = (DATA_RTXD_Obj *)handle;
 8001d58:	687b      	ldr	r3, [r7, #4]
 8001d5a:	60fb      	str	r3, [r7, #12]

	if( obj->data_txd_num == DATA_TXD_SIZE )
 8001d5c:	68fb      	ldr	r3, [r7, #12]
 8001d5e:	7b9b      	ldrb	r3, [r3, #14]
 8001d60:	2b0d      	cmp	r3, #13
 8001d62:	d101      	bne.n	8001d68 <DATA_TXD_Status+0x18>
	{
		return false;
 8001d64:	2300      	movs	r3, #0
 8001d66:	e000      	b.n	8001d6a <DATA_TXD_Status+0x1a>
	}
	else return true;
 8001d68:	2301      	movs	r3, #1
}
 8001d6a:	4618      	mov	r0, r3
 8001d6c:	3714      	adds	r7, #20
 8001d6e:	46bd      	mov	sp, r7
 8001d70:	f85d 7b04 	ldr.w	r7, [sp], #4
 8001d74:	4770      	bx	lr
 8001d76:	bf00      	nop

08001d78 <Get_DATA_TXD_Ptr>:

	return value;
}

static inline uint8_t* Get_DATA_TXD_Ptr(DATA_RTXD_Handle handle)
{
 8001d78:	b480      	push	{r7}
 8001d7a:	b085      	sub	sp, #20
 8001d7c:	af00      	add	r7, sp, #0
 8001d7e:	6078      	str	r0, [r7, #4]
	DATA_RTXD_Obj *obj = (DATA_RTXD_Obj *)handle;
 8001d80:	687b      	ldr	r3, [r7, #4]
 8001d82:	60fb      	str	r3, [r7, #12]
	
	obj->data_txd_num = DATA_TXD_SIZE;
 8001d84:	68fb      	ldr	r3, [r7, #12]
 8001d86:	220d      	movs	r2, #13
 8001d88:	739a      	strb	r2, [r3, #14]

	return obj->data_txd;
 8001d8a:	68fb      	ldr	r3, [r7, #12]
 8001d8c:	330f      	adds	r3, #15
}
 8001d8e:	4618      	mov	r0, r3
 8001d90:	3714      	adds	r7, #20
 8001d92:	46bd      	mov	sp, r7
 8001d94:	f85d 7b04 	ldr.w	r7, [sp], #4
 8001d98:	4770      	bx	lr
 8001d9a:	bf00      	nop

08001d9c <HAL_getCurrentScaleFactor>:
//!             This scale factor is not used when converting between PU amps
//!             and real amps.
//! \param[in]  handle  The hardware abstraction layer (HAL) handle
//! \return     The current scale factor
static inline float_t HAL_getCurrentScaleFactor(HAL_Handle handle)//! \Mod By Dl.K
{
 8001d9c:	b480      	push	{r7}
 8001d9e:	b085      	sub	sp, #20
 8001da0:	af00      	add	r7, sp, #0
 8001da2:	6078      	str	r0, [r7, #4]
  HAL_Obj *obj = (HAL_Obj *)handle;
 8001da4:	687b      	ldr	r3, [r7, #4]
 8001da6:	60fb      	str	r3, [r7, #12]

  return(obj->current_sf);
 8001da8:	68fb      	ldr	r3, [r7, #12]
 8001daa:	f8d3 30f8 	ldr.w	r3, [r3, #248]	; 0xf8
 8001dae:	ee07 3a90 	vmov	s15, r3
} // end of HAL_getCurrentScaleFactor() function
 8001db2:	eeb0 0a67 	vmov.f32	s0, s15
 8001db6:	3714      	adds	r7, #20
 8001db8:	46bd      	mov	sp, r7
 8001dba:	f85d 7b04 	ldr.w	r7, [sp], #4
 8001dbe:	4770      	bx	lr

08001dc0 <HAL_getVoltageScaleFactor>:
//!             This scale factor is not used when converting between PU volts
//!             and real volts.
//! \param[in]  handle  The hardware abstraction layer (HAL) handle
//! \return     The voltage scale factor
static inline float_t HAL_getVoltageScaleFactor(HAL_Handle handle)//! \Mod By Dl.K
{
 8001dc0:	b480      	push	{r7}
 8001dc2:	b085      	sub	sp, #20
 8001dc4:	af00      	add	r7, sp, #0
 8001dc6:	6078      	str	r0, [r7, #4]
  HAL_Obj *obj = (HAL_Obj *)handle;
 8001dc8:	687b      	ldr	r3, [r7, #4]
 8001dca:	60fb      	str	r3, [r7, #12]

  return(obj->voltage_sf);
 8001dcc:	68fb      	ldr	r3, [r7, #12]
 8001dce:	f8d3 30fc 	ldr.w	r3, [r3, #252]	; 0xfc
 8001dd2:	ee07 3a90 	vmov	s15, r3
} // end of HAL_getVoltageScaleFactor() function
 8001dd6:	eeb0 0a67 	vmov.f32	s0, s15
 8001dda:	3714      	adds	r7, #20
 8001ddc:	46bd      	mov	sp, r7
 8001dde:	f85d 7b04 	ldr.w	r7, [sp], #4
 8001de2:	4770      	bx	lr

08001de4 <HAL_readAdcData>:
//!             structure gAdcData holds three phase voltages, three line
//!             currents, and one DC bus voltage.
//! \param[in]  handle    The hardware abstraction layer (HAL) handle
//! \param[in]  pAdcData  A pointer to the ADC data buffer
static inline void HAL_readAdcData(HAL_Handle handle,HAL_AdcData_t *pAdcData)
{
 8001de4:	b580      	push	{r7, lr}
 8001de6:	b086      	sub	sp, #24
 8001de8:	af00      	add	r7, sp, #0
 8001dea:	6078      	str	r0, [r7, #4]
 8001dec:	6039      	str	r1, [r7, #0]
  HAL_Obj *obj = (HAL_Obj *)handle;
 8001dee:	687b      	ldr	r3, [r7, #4]
 8001df0:	617b      	str	r3, [r7, #20]

  float_t value;
  float_t current_sf = HAL_getCurrentScaleFactor(handle);
 8001df2:	6878      	ldr	r0, [r7, #4]
 8001df4:	f7ff ffd2 	bl	8001d9c <HAL_getCurrentScaleFactor>
 8001df8:	ed87 0a04 	vstr	s0, [r7, #16]
  float_t voltage_sf = HAL_getVoltageScaleFactor(handle);
 8001dfc:	6878      	ldr	r0, [r7, #4]
 8001dfe:	f7ff ffdf 	bl	8001dc0 <HAL_getVoltageScaleFactor>
 8001e02:	ed87 0a03 	vstr	s0, [r7, #12]
	//! \Mod By Dl.K

  // convert current A
  // sample the first sample twice due to errata sprz342f, ignore the first sample
	value = pAdcData->I.value[0] * AD_CONV_RATIO;
 8001e06:	683b      	ldr	r3, [r7, #0]
 8001e08:	edd3 7a00 	vldr	s15, [r3]
 8001e0c:	ed9f 7a63 	vldr	s14, [pc, #396]	; 8001f9c <HAL_readAdcData+0x1b8>
 8001e10:	ee67 7a87 	vmul.f32	s15, s15, s14
 8001e14:	edc7 7a02 	vstr	s15, [r7, #8]
  value = (value*current_sf) - obj->adcBias.I.value[0];      // divide by 2^numAdcBits = 2^12
 8001e18:	ed97 7a02 	vldr	s14, [r7, #8]
 8001e1c:	edd7 7a04 	vldr	s15, [r7, #16]
 8001e20:	ee27 7a27 	vmul.f32	s14, s14, s15
 8001e24:	697b      	ldr	r3, [r7, #20]
 8001e26:	edd3 7a36 	vldr	s15, [r3, #216]	; 0xd8
 8001e2a:	ee77 7a67 	vsub.f32	s15, s14, s15
 8001e2e:	edc7 7a02 	vstr	s15, [r7, #8]
  pAdcData->I.value[0] = value;//! \Mod By Dl.K Del'-'
 8001e32:	683b      	ldr	r3, [r7, #0]
 8001e34:	68ba      	ldr	r2, [r7, #8]
 8001e36:	601a      	str	r2, [r3, #0]

  // convert current B
	value = pAdcData->I.value[1] * AD_CONV_RATIO;
 8001e38:	683b      	ldr	r3, [r7, #0]
 8001e3a:	edd3 7a01 	vldr	s15, [r3, #4]
 8001e3e:	ed9f 7a57 	vldr	s14, [pc, #348]	; 8001f9c <HAL_readAdcData+0x1b8>
 8001e42:	ee67 7a87 	vmul.f32	s15, s15, s14
 8001e46:	edc7 7a02 	vstr	s15, [r7, #8]
  value = (value*current_sf) - obj->adcBias.I.value[1];      // divide by 2^numAdcBits = 2^12
 8001e4a:	ed97 7a02 	vldr	s14, [r7, #8]
 8001e4e:	edd7 7a04 	vldr	s15, [r7, #16]
 8001e52:	ee27 7a27 	vmul.f32	s14, s14, s15
 8001e56:	697b      	ldr	r3, [r7, #20]
 8001e58:	edd3 7a37 	vldr	s15, [r3, #220]	; 0xdc
 8001e5c:	ee77 7a67 	vsub.f32	s15, s14, s15
 8001e60:	edc7 7a02 	vstr	s15, [r7, #8]
  pAdcData->I.value[1] = value;//! \Mod By Dl.K Del'-'
 8001e64:	683b      	ldr	r3, [r7, #0]
 8001e66:	68ba      	ldr	r2, [r7, #8]
 8001e68:	605a      	str	r2, [r3, #4]

  // convert current C
	value = pAdcData->I.value[2] * AD_CONV_RATIO;
 8001e6a:	683b      	ldr	r3, [r7, #0]
 8001e6c:	edd3 7a02 	vldr	s15, [r3, #8]
 8001e70:	ed9f 7a4a 	vldr	s14, [pc, #296]	; 8001f9c <HAL_readAdcData+0x1b8>
 8001e74:	ee67 7a87 	vmul.f32	s15, s15, s14
 8001e78:	edc7 7a02 	vstr	s15, [r7, #8]
  value = (value*current_sf) - obj->adcBias.I.value[2];      // divide by 2^numAdcBits = 2^12
 8001e7c:	ed97 7a02 	vldr	s14, [r7, #8]
 8001e80:	edd7 7a04 	vldr	s15, [r7, #16]
 8001e84:	ee27 7a27 	vmul.f32	s14, s14, s15
 8001e88:	697b      	ldr	r3, [r7, #20]
 8001e8a:	edd3 7a38 	vldr	s15, [r3, #224]	; 0xe0
 8001e8e:	ee77 7a67 	vsub.f32	s15, s14, s15
 8001e92:	edc7 7a02 	vstr	s15, [r7, #8]
  pAdcData->I.value[2] = value;//! \Mod By Dl.K Del'-'
 8001e96:	683b      	ldr	r3, [r7, #0]
 8001e98:	68ba      	ldr	r2, [r7, #8]
 8001e9a:	609a      	str	r2, [r3, #8]

  // convert voltage A
	value = pAdcData->V.value[0] * AD_CONV_RATIO;
 8001e9c:	683b      	ldr	r3, [r7, #0]
 8001e9e:	edd3 7a03 	vldr	s15, [r3, #12]
 8001ea2:	ed9f 7a3e 	vldr	s14, [pc, #248]	; 8001f9c <HAL_readAdcData+0x1b8>
 8001ea6:	ee67 7a87 	vmul.f32	s15, s15, s14
 8001eaa:	edc7 7a02 	vstr	s15, [r7, #8]
  value = (value*voltage_sf) - obj->adcBias.V.value[0];      // divide by 2^numAdcBits = 2^12
 8001eae:	ed97 7a02 	vldr	s14, [r7, #8]
 8001eb2:	edd7 7a03 	vldr	s15, [r7, #12]
 8001eb6:	ee27 7a27 	vmul.f32	s14, s14, s15
 8001eba:	697b      	ldr	r3, [r7, #20]
 8001ebc:	edd3 7a39 	vldr	s15, [r3, #228]	; 0xe4
 8001ec0:	ee77 7a67 	vsub.f32	s15, s14, s15
 8001ec4:	edc7 7a02 	vstr	s15, [r7, #8]
  pAdcData->V.value[0] = value;
 8001ec8:	683b      	ldr	r3, [r7, #0]
 8001eca:	68ba      	ldr	r2, [r7, #8]
 8001ecc:	60da      	str	r2, [r3, #12]

  // convert voltage B
	value = pAdcData->V.value[1] * AD_CONV_RATIO;
 8001ece:	683b      	ldr	r3, [r7, #0]
 8001ed0:	edd3 7a04 	vldr	s15, [r3, #16]
 8001ed4:	ed9f 7a31 	vldr	s14, [pc, #196]	; 8001f9c <HAL_readAdcData+0x1b8>
 8001ed8:	ee67 7a87 	vmul.f32	s15, s15, s14
 8001edc:	edc7 7a02 	vstr	s15, [r7, #8]
  value = (value*voltage_sf) - obj->adcBias.V.value[1];      // divide by 2^numAdcBits = 2^12
 8001ee0:	ed97 7a02 	vldr	s14, [r7, #8]
 8001ee4:	edd7 7a03 	vldr	s15, [r7, #12]
 8001ee8:	ee27 7a27 	vmul.f32	s14, s14, s15
 8001eec:	697b      	ldr	r3, [r7, #20]
 8001eee:	edd3 7a3a 	vldr	s15, [r3, #232]	; 0xe8
 8001ef2:	ee77 7a67 	vsub.f32	s15, s14, s15
 8001ef6:	edc7 7a02 	vstr	s15, [r7, #8]
  pAdcData->V.value[1] = value;
 8001efa:	683b      	ldr	r3, [r7, #0]
 8001efc:	68ba      	ldr	r2, [r7, #8]
 8001efe:	611a      	str	r2, [r3, #16]

  // convert voltage C
	value = pAdcData->I.value[2] * AD_CONV_RATIO;
 8001f00:	683b      	ldr	r3, [r7, #0]
 8001f02:	edd3 7a02 	vldr	s15, [r3, #8]
 8001f06:	ed9f 7a25 	vldr	s14, [pc, #148]	; 8001f9c <HAL_readAdcData+0x1b8>
 8001f0a:	ee67 7a87 	vmul.f32	s15, s15, s14
 8001f0e:	edc7 7a02 	vstr	s15, [r7, #8]
  value = (value*voltage_sf) - obj->adcBias.V.value[2];      // divide by 2^numAdcBits = 2^12
 8001f12:	ed97 7a02 	vldr	s14, [r7, #8]
 8001f16:	edd7 7a03 	vldr	s15, [r7, #12]
 8001f1a:	ee27 7a27 	vmul.f32	s14, s14, s15
 8001f1e:	697b      	ldr	r3, [r7, #20]
 8001f20:	edd3 7a3b 	vldr	s15, [r3, #236]	; 0xec
 8001f24:	ee77 7a67 	vsub.f32	s15, s14, s15
 8001f28:	edc7 7a02 	vstr	s15, [r7, #8]
  pAdcData->V.value[2] = value;
 8001f2c:	683b      	ldr	r3, [r7, #0]
 8001f2e:	68ba      	ldr	r2, [r7, #8]
 8001f30:	615a      	str	r2, [r3, #20]

  // read the dcBus voltage value //! \Mod By Dl.K
	value = pAdcData->VdcBus * AD_CONV_RATIO;
 8001f32:	683b      	ldr	r3, [r7, #0]
 8001f34:	edd3 7a06 	vldr	s15, [r3, #24]
 8001f38:	ed9f 7a18 	vldr	s14, [pc, #96]	; 8001f9c <HAL_readAdcData+0x1b8>
 8001f3c:	ee67 7a87 	vmul.f32	s15, s15, s14
 8001f40:	edc7 7a02 	vstr	s15, [r7, #8]
  value = (value*voltage_sf) - (V_DC_offset)*USER_VOLTAGE_SF;
 8001f44:	ed97 7a02 	vldr	s14, [r7, #8]
 8001f48:	edd7 7a03 	vldr	s15, [r7, #12]
 8001f4c:	ee67 7a27 	vmul.f32	s15, s14, s15
 8001f50:	ed9f 7a13 	vldr	s14, [pc, #76]	; 8001fa0 <HAL_readAdcData+0x1bc>
 8001f54:	ee77 7ac7 	vsub.f32	s15, s15, s14
 8001f58:	edc7 7a02 	vstr	s15, [r7, #8]
  pAdcData->VdcBus = value;
 8001f5c:	683b      	ldr	r3, [r7, #0]
 8001f5e:	68ba      	ldr	r2, [r7, #8]
 8001f60:	619a      	str	r2, [r3, #24]

  // read the dcBus current value //! \Mod By Dl.K
	value = pAdcData->IdcBus * AD_CONV_RATIO;
 8001f62:	683b      	ldr	r3, [r7, #0]
 8001f64:	edd3 7a07 	vldr	s15, [r3, #28]
 8001f68:	ed9f 7a0c 	vldr	s14, [pc, #48]	; 8001f9c <HAL_readAdcData+0x1b8>
 8001f6c:	ee67 7a87 	vmul.f32	s15, s15, s14
 8001f70:	edc7 7a02 	vstr	s15, [r7, #8]
  value = (value*current_sf) - (I_DC_offset)*USER_CURRENT_SF;
 8001f74:	ed97 7a02 	vldr	s14, [r7, #8]
 8001f78:	edd7 7a04 	vldr	s15, [r7, #16]
 8001f7c:	ee67 7a27 	vmul.f32	s15, s14, s15
 8001f80:	ed9f 7a08 	vldr	s14, [pc, #32]	; 8001fa4 <HAL_readAdcData+0x1c0>
 8001f84:	ee77 7ac7 	vsub.f32	s15, s15, s14
 8001f88:	edc7 7a02 	vstr	s15, [r7, #8]
  pAdcData->IdcBus = value;
 8001f8c:	683b      	ldr	r3, [r7, #0]
 8001f8e:	68ba      	ldr	r2, [r7, #8]
 8001f90:	61da      	str	r2, [r3, #28]

  return;
 8001f92:	bf00      	nop
} // end of HAL_readAdcData() function
 8001f94:	3718      	adds	r7, #24
 8001f96:	46bd      	mov	sp, r7
 8001f98:	bd80      	pop	{r7, pc}
 8001f9a:	bf00      	nop
 8001f9c:	39800000 	.word	0x39800000
 8001fa0:	3f05f57f 	.word	0x3f05f57f
 8001fa4:	3f47fff2 	.word	0x3f47fff2

08001fa8 <HAL_writePwmData>:

//! \brief     Writes PWM data to the PWM comparators for motor control
//! \param[in] handle    The hardware abstraction layer (HAL) handle
//! \param[in] pPwmData  The pointer to the PWM data
static inline void HAL_writePwmData(HAL_Handle handle,HAL_PwmData_t *pPwmData)
{
 8001fa8:	b580      	push	{r7, lr}
 8001faa:	b086      	sub	sp, #24
 8001fac:	af00      	add	r7, sp, #0
 8001fae:	6078      	str	r0, [r7, #4]
 8001fb0:	6039      	str	r1, [r7, #0]
  uint_least8_t cnt;
  float_t pwmData_neg;
  float_t pwmData_sat;
  float_t pwmData_sat_dc;

  for(cnt=0;cnt<3;cnt++)
 8001fb2:	2300      	movs	r3, #0
 8001fb4:	75fb      	strb	r3, [r7, #23]
 8001fb6:	e024      	b.n	8002002 <HAL_writePwmData+0x5a>
    {
      pwmData_neg = (pPwmData->Tabc.value[cnt]*(1.0f));//! \Attention : Dl.K
 8001fb8:	7dfb      	ldrb	r3, [r7, #23]
 8001fba:	683a      	ldr	r2, [r7, #0]
 8001fbc:	009b      	lsls	r3, r3, #2
 8001fbe:	4413      	add	r3, r2
 8001fc0:	681b      	ldr	r3, [r3, #0]
 8001fc2:	613b      	str	r3, [r7, #16]
      pwmData_sat = MATH_sat(pwmData_neg,(1.0f),(-1.0f));
 8001fc4:	ed97 0a04 	vldr	s0, [r7, #16]
 8001fc8:	eef7 0a00 	vmov.f32	s1, #112	; 0x70
 8001fcc:	eebf 1a00 	vmov.f32	s2, #240	; 0xf0
 8001fd0:	f7ff fe92 	bl	8001cf8 <MATH_sat>
 8001fd4:	ed87 0a03 	vstr	s0, [r7, #12]
      pwmData_sat_dc = ( (pwmData_sat + (1.0f)) * (0.5f) );
 8001fd8:	edd7 7a03 	vldr	s15, [r7, #12]
 8001fdc:	eeb7 7a00 	vmov.f32	s14, #112	; 0x70
 8001fe0:	ee77 7a87 	vadd.f32	s15, s15, s14
 8001fe4:	eeb6 7a00 	vmov.f32	s14, #96	; 0x60
 8001fe8:	ee67 7a87 	vmul.f32	s15, s15, s14
 8001fec:	edc7 7a02 	vstr	s15, [r7, #8]
			pPwmData->Tabc.value[cnt] = pwmData_sat_dc;
 8001ff0:	7dfb      	ldrb	r3, [r7, #23]
 8001ff2:	683a      	ldr	r2, [r7, #0]
 8001ff4:	009b      	lsls	r3, r3, #2
 8001ff6:	4413      	add	r3, r2
 8001ff8:	68ba      	ldr	r2, [r7, #8]
 8001ffa:	601a      	str	r2, [r3, #0]
  uint_least8_t cnt;
  float_t pwmData_neg;
  float_t pwmData_sat;
  float_t pwmData_sat_dc;

  for(cnt=0;cnt<3;cnt++)
 8001ffc:	7dfb      	ldrb	r3, [r7, #23]
 8001ffe:	3301      	adds	r3, #1
 8002000:	75fb      	strb	r3, [r7, #23]
 8002002:	7dfb      	ldrb	r3, [r7, #23]
 8002004:	2b02      	cmp	r3, #2
 8002006:	d9d7      	bls.n	8001fb8 <HAL_writePwmData+0x10>
      pwmData_sat = MATH_sat(pwmData_neg,(1.0f),(-1.0f));
      pwmData_sat_dc = ( (pwmData_sat + (1.0f)) * (0.5f) );
			pPwmData->Tabc.value[cnt] = pwmData_sat_dc;
    }

  return;
 8002008:	bf00      	nop
} // end of HAL_writePwmData() function
 800200a:	3718      	adds	r7, #24
 800200c:	46bd      	mov	sp, r7
 800200e:	bd80      	pop	{r7, pc}

08002010 <Motor_Ctrl_Init>:
CTRL_Obj gCtrl;
CTRL_Handle gCtrlHandle;


void Motor_Ctrl_Init(void)
{
 8002010:	b580      	push	{r7, lr}
 8002012:	af00      	add	r7, sp, #0
	gHalHandle = HAL_init(&gHal, sizeof(gHal));
 8002014:	480f      	ldr	r0, [pc, #60]	; (8002054 <Motor_Ctrl_Init+0x44>)
 8002016:	f44f 7182 	mov.w	r1, #260	; 0x104
 800201a:	f003 fcc7 	bl	80059ac <HAL_init>
 800201e:	4602      	mov	r2, r0
 8002020:	4b0d      	ldr	r3, [pc, #52]	; (8002058 <Motor_Ctrl_Init+0x48>)
 8002022:	601a      	str	r2, [r3, #0]
	
	gCtrlHandle = CTRL_init(&gCtrl, sizeof(gCtrl));
 8002024:	480d      	ldr	r0, [pc, #52]	; (800205c <Motor_Ctrl_Init+0x4c>)
 8002026:	f44f 714b 	mov.w	r1, #812	; 0x32c
 800202a:	f002 fb23 	bl	8004674 <CTRL_init>
 800202e:	4602      	mov	r2, r0
 8002030:	4b0b      	ldr	r3, [pc, #44]	; (8002060 <Motor_Ctrl_Init+0x50>)
 8002032:	601a      	str	r2, [r3, #0]
	
	USER_setParams(&gUserParams);
 8002034:	480b      	ldr	r0, [pc, #44]	; (8002064 <Motor_Ctrl_Init+0x54>)
 8002036:	f003 ff4b 	bl	8005ed0 <USER_setParams>
	
	HAL_setParams(gHalHandle, &gUserParams);
 800203a:	4b07      	ldr	r3, [pc, #28]	; (8002058 <Motor_Ctrl_Init+0x48>)
 800203c:	681b      	ldr	r3, [r3, #0]
 800203e:	4618      	mov	r0, r3
 8002040:	4908      	ldr	r1, [pc, #32]	; (8002064 <Motor_Ctrl_Init+0x54>)
 8002042:	f003 fcf9 	bl	8005a38 <HAL_setParams>
	
	CTRL_setParams(gCtrlHandle, &gUserParams);
 8002046:	4b06      	ldr	r3, [pc, #24]	; (8002060 <Motor_Ctrl_Init+0x50>)
 8002048:	681b      	ldr	r3, [r3, #0]
 800204a:	4618      	mov	r0, r3
 800204c:	4905      	ldr	r1, [pc, #20]	; (8002064 <Motor_Ctrl_Init+0x54>)
 800204e:	f002 fbc5 	bl	80047dc <CTRL_setParams>
	
}
 8002052:	bd80      	pop	{r7, pc}
 8002054:	2001252c 	.word	0x2001252c
 8002058:	200121fc 	.word	0x200121fc
 800205c:	20012200 	.word	0x20012200
 8002060:	20012630 	.word	0x20012630
 8002064:	20012634 	.word	0x20012634

08002068 <Motor_Ctrl_Run>:
			return true;
		}
}

void Motor_Ctrl_Run(HAL_AdcData_t *pAdcData, HAL_PwmData_t *pPwmData, HAL_QepData_t *pQepData)
{
 8002068:	b580      	push	{r7, lr}
 800206a:	b086      	sub	sp, #24
 800206c:	af02      	add	r7, sp, #8
 800206e:	60f8      	str	r0, [r7, #12]
 8002070:	60b9      	str	r1, [r7, #8]
 8002072:	607a      	str	r2, [r7, #4]
	static uint_least16_t count_sci=50,numSciTick=50;

  // convert the ADC data
  HAL_readAdcData(gHalHandle,pAdcData);
 8002074:	4b29      	ldr	r3, [pc, #164]	; (800211c <Motor_Ctrl_Run+0xb4>)
 8002076:	681b      	ldr	r3, [r3, #0]
 8002078:	4618      	mov	r0, r3
 800207a:	68f9      	ldr	r1, [r7, #12]
 800207c:	f7ff feb2 	bl	8001de4 <HAL_readAdcData>

  // run the controller
  
#if 1
  CTRL_run(gCtrlHandle,gHalHandle,pAdcData,pPwmData,pQepData);
 8002080:	4b27      	ldr	r3, [pc, #156]	; (8002120 <Motor_Ctrl_Run+0xb8>)
 8002082:	6819      	ldr	r1, [r3, #0]
 8002084:	4b25      	ldr	r3, [pc, #148]	; (800211c <Motor_Ctrl_Run+0xb4>)
 8002086:	681a      	ldr	r2, [r3, #0]
 8002088:	687b      	ldr	r3, [r7, #4]
 800208a:	9300      	str	r3, [sp, #0]
 800208c:	4608      	mov	r0, r1
 800208e:	4611      	mov	r1, r2
 8002090:	68fa      	ldr	r2, [r7, #12]
 8002092:	68bb      	ldr	r3, [r7, #8]
 8002094:	f002 fa2e 	bl	80044f4 <CTRL_run>
//	pPwmData->Tabc.value[0] = -0.1f;
//	pPwmData->Tabc.value[1] = -0.0f;
//	pPwmData->Tabc.value[2] = 0.1f;
  // write the PWM compare values
  
  HAL_writePwmData(gHalHandle,pPwmData);
 8002098:	4b20      	ldr	r3, [pc, #128]	; (800211c <Motor_Ctrl_Run+0xb4>)
 800209a:	681b      	ldr	r3, [r3, #0]
 800209c:	4618      	mov	r0, r3
 800209e:	68b9      	ldr	r1, [r7, #8]
 80020a0:	f7ff ff82 	bl	8001fa8 <HAL_writePwmData>

//  // setup the controller
//  CTRL_setup(gCtrlHandle);
#if 1
	if(count_sci>=numSciTick)
 80020a4:	4b1f      	ldr	r3, [pc, #124]	; (8002124 <Motor_Ctrl_Run+0xbc>)
 80020a6:	881a      	ldrh	r2, [r3, #0]
 80020a8:	4b1f      	ldr	r3, [pc, #124]	; (8002128 <Motor_Ctrl_Run+0xc0>)
 80020aa:	881b      	ldrh	r3, [r3, #0]
 80020ac:	429a      	cmp	r2, r3
 80020ae:	d32c      	bcc.n	800210a <Motor_Ctrl_Run+0xa2>
	{
		count_sci = 1;
 80020b0:	4b1c      	ldr	r3, [pc, #112]	; (8002124 <Motor_Ctrl_Run+0xbc>)
 80020b2:	2201      	movs	r2, #1
 80020b4:	801a      	strh	r2, [r3, #0]
		DATA_RTXD_Decode(gCtrlHandle,gHalHandle);
 80020b6:	4b1a      	ldr	r3, [pc, #104]	; (8002120 <Motor_Ctrl_Run+0xb8>)
 80020b8:	681a      	ldr	r2, [r3, #0]
 80020ba:	4b18      	ldr	r3, [pc, #96]	; (800211c <Motor_Ctrl_Run+0xb4>)
 80020bc:	681b      	ldr	r3, [r3, #0]
 80020be:	4610      	mov	r0, r2
 80020c0:	4619      	mov	r1, r3
 80020c2:	f003 fa07 	bl	80054d4 <DATA_RTXD_Decode>
		DATA_RTXD_Run(gCtrlHandle,gHalHandle,pAdcData,pQepData);
 80020c6:	4b16      	ldr	r3, [pc, #88]	; (8002120 <Motor_Ctrl_Run+0xb8>)
 80020c8:	681a      	ldr	r2, [r3, #0]
 80020ca:	4b14      	ldr	r3, [pc, #80]	; (800211c <Motor_Ctrl_Run+0xb4>)
 80020cc:	681b      	ldr	r3, [r3, #0]
 80020ce:	4610      	mov	r0, r2
 80020d0:	4619      	mov	r1, r3
 80020d2:	68fa      	ldr	r2, [r7, #12]
 80020d4:	687b      	ldr	r3, [r7, #4]
 80020d6:	f003 f979 	bl	80053cc <DATA_RTXD_Run>
		while( DATA_TXD_Status(gCtrlHandle->data_rtxd_handle))
 80020da:	e00b      	b.n	80020f4 <Motor_Ctrl_Run+0x8c>
		{
			//rt_kprintf("%c",DATA_TXD_Run(handle->data_rtxd_handle));
			myprintf((char*)Get_DATA_TXD_Ptr(gCtrlHandle->data_rtxd_handle), 13);
 80020dc:	4b10      	ldr	r3, [pc, #64]	; (8002120 <Motor_Ctrl_Run+0xb8>)
 80020de:	681b      	ldr	r3, [r3, #0]
 80020e0:	f8d3 3260 	ldr.w	r3, [r3, #608]	; 0x260
 80020e4:	4618      	mov	r0, r3
 80020e6:	f7ff fe47 	bl	8001d78 <Get_DATA_TXD_Ptr>
 80020ea:	4603      	mov	r3, r0
 80020ec:	4618      	mov	r0, r3
 80020ee:	210d      	movs	r1, #13
 80020f0:	f012 ff28 	bl	8014f44 <myprintf>
	if(count_sci>=numSciTick)
	{
		count_sci = 1;
		DATA_RTXD_Decode(gCtrlHandle,gHalHandle);
		DATA_RTXD_Run(gCtrlHandle,gHalHandle,pAdcData,pQepData);
		while( DATA_TXD_Status(gCtrlHandle->data_rtxd_handle))
 80020f4:	4b0a      	ldr	r3, [pc, #40]	; (8002120 <Motor_Ctrl_Run+0xb8>)
 80020f6:	681b      	ldr	r3, [r3, #0]
 80020f8:	f8d3 3260 	ldr.w	r3, [r3, #608]	; 0x260
 80020fc:	4618      	mov	r0, r3
 80020fe:	f7ff fe27 	bl	8001d50 <DATA_TXD_Status>
 8002102:	4603      	mov	r3, r0
 8002104:	2b00      	cmp	r3, #0
 8002106:	d1e9      	bne.n	80020dc <Motor_Ctrl_Run+0x74>
 8002108:	e005      	b.n	8002116 <Motor_Ctrl_Run+0xae>
		{
			//rt_kprintf("%c",DATA_TXD_Run(handle->data_rtxd_handle));
			myprintf((char*)Get_DATA_TXD_Ptr(gCtrlHandle->data_rtxd_handle), 13);
		}		
	}
	else count_sci++;//! \Mod By Dl.K
 800210a:	4b06      	ldr	r3, [pc, #24]	; (8002124 <Motor_Ctrl_Run+0xbc>)
 800210c:	881b      	ldrh	r3, [r3, #0]
 800210e:	3301      	adds	r3, #1
 8002110:	b29a      	uxth	r2, r3
 8002112:	4b04      	ldr	r3, [pc, #16]	; (8002124 <Motor_Ctrl_Run+0xbc>)
 8002114:	801a      	strh	r2, [r3, #0]
	#endif
}
 8002116:	3710      	adds	r7, #16
 8002118:	46bd      	mov	sp, r7
 800211a:	bd80      	pop	{r7, pc}
 800211c:	200121fc 	.word	0x200121fc
 8002120:	20012630 	.word	0x20012630
 8002124:	20010000 	.word	0x20010000
 8002128:	20010002 	.word	0x20010002

0800212c <MATH_abs>:

//! \brief     Finds the absolute value 
//! \param[in] in   The input value
//! \return    The absolute value
static inline float_t MATH_abs(const float_t in)
{
 800212c:	b480      	push	{r7}
 800212e:	b085      	sub	sp, #20
 8002130:	af00      	add	r7, sp, #0
 8002132:	ed87 0a01 	vstr	s0, [r7, #4]
  float_t out = in;
 8002136:	687b      	ldr	r3, [r7, #4]
 8002138:	60fb      	str	r3, [r7, #12]


  if(in < 0.0f)
 800213a:	edd7 7a01 	vldr	s15, [r7, #4]
 800213e:	eef5 7ac0 	vcmpe.f32	s15, #0.0
 8002142:	eef1 fa10 	vmrs	APSR_nzcv, fpscr
 8002146:	d505      	bpl.n	8002154 <MATH_abs+0x28>
    {
      out = -in;
 8002148:	edd7 7a01 	vldr	s15, [r7, #4]
 800214c:	eef1 7a67 	vneg.f32	s15, s15
 8002150:	edc7 7a03 	vstr	s15, [r7, #12]
    }

  return(out);
 8002154:	68fb      	ldr	r3, [r7, #12]
 8002156:	ee07 3a90 	vmov	s15, r3
} // end of MATH_abs() function
 800215a:	eeb0 0a67 	vmov.f32	s0, s15
 800215e:	3714      	adds	r7, #20
 8002160:	46bd      	mov	sp, r7
 8002162:	f85d 7b04 	ldr.w	r7, [sp], #4
 8002166:	4770      	bx	lr

08002168 <Speed_UpdateElecTheta>:

	return;
}

static inline void Speed_UpdateElecTheta(SPEED_Handle handle)//! \Mod By Dl.K
{
 8002168:	b480      	push	{r7}
 800216a:	b085      	sub	sp, #20
 800216c:	af00      	add	r7, sp, #0
 800216e:	6078      	str	r0, [r7, #4]
	SPEED_Obj *obj = (SPEED_Obj *)handle;
 8002170:	687b      	ldr	r3, [r7, #4]
 8002172:	60fb      	str	r3, [r7, #12]

	obj->OldElecTheta = obj->ElecTheta;
 8002174:	68fb      	ldr	r3, [r7, #12]
 8002176:	681a      	ldr	r2, [r3, #0]
 8002178:	68fb      	ldr	r3, [r7, #12]
 800217a:	605a      	str	r2, [r3, #4]

	return;
 800217c:	bf00      	nop
}
 800217e:	3714      	adds	r7, #20
 8002180:	46bd      	mov	sp, r7
 8002182:	f85d 7b04 	ldr.w	r7, [sp], #4
 8002186:	4770      	bx	lr

08002188 <Speed_UpdateElecSpeed>:

static inline void Speed_UpdateElecSpeed(SPEED_Handle handle)//! \Mod By Dl.K
{
 8002188:	b480      	push	{r7}
 800218a:	b085      	sub	sp, #20
 800218c:	af00      	add	r7, sp, #0
 800218e:	6078      	str	r0, [r7, #4]
	SPEED_Obj *obj = (SPEED_Obj *)handle;
 8002190:	687b      	ldr	r3, [r7, #4]
 8002192:	60fb      	str	r3, [r7, #12]

	obj->OldElecSpeed = obj->ElecSpeed;
 8002194:	68fb      	ldr	r3, [r7, #12]
 8002196:	68da      	ldr	r2, [r3, #12]
 8002198:	68fb      	ldr	r3, [r7, #12]
 800219a:	611a      	str	r2, [r3, #16]

	return;
 800219c:	bf00      	nop
}
 800219e:	3714      	adds	r7, #20
 80021a0:	46bd      	mov	sp, r7
 80021a2:	f85d 7b04 	ldr.w	r7, [sp], #4
 80021a6:	4770      	bx	lr

080021a8 <Speed_Init>:
-------------------------------------------------------------------------------------*/

#include "modules/Speed/Speed.h"

SPEED_Handle Speed_Init(void *pMemory, const size_t numBytes)//! \Mod By Dl.K
{
 80021a8:	b480      	push	{r7}
 80021aa:	b085      	sub	sp, #20
 80021ac:	af00      	add	r7, sp, #0
 80021ae:	6078      	str	r0, [r7, #4]
 80021b0:	6039      	str	r1, [r7, #0]
	SPEED_Handle handle;

	if (numBytes < sizeof(SPEED_Obj))
 80021b2:	683b      	ldr	r3, [r7, #0]
 80021b4:	2b1b      	cmp	r3, #27
 80021b6:	d801      	bhi.n	80021bc <Speed_Init+0x14>
		return((SPEED_Handle)NULL);
 80021b8:	2300      	movs	r3, #0
 80021ba:	e01e      	b.n	80021fa <Speed_Init+0x52>

	// assign the handle
	handle = (SPEED_Handle)pMemory;
 80021bc:	687b      	ldr	r3, [r7, #4]
 80021be:	60fb      	str	r3, [r7, #12]

	handle->ElecTheta = (0.0f);
 80021c0:	68fb      	ldr	r3, [r7, #12]
 80021c2:	f04f 0200 	mov.w	r2, #0
 80021c6:	601a      	str	r2, [r3, #0]
	handle->OldElecTheta = (0.0f);
 80021c8:	68fb      	ldr	r3, [r7, #12]
 80021ca:	f04f 0200 	mov.w	r2, #0
 80021ce:	605a      	str	r2, [r3, #4]
	handle->ElecThetaChagTimeRatio = (0.0f);// Real:1/(T) PU:1/(T)/SpeedBaseFreq
 80021d0:	68fb      	ldr	r3, [r7, #12]
 80021d2:	f04f 0200 	mov.w	r2, #0
 80021d6:	609a      	str	r2, [r3, #8]
	handle->ElecSpeed = (0.0f);
 80021d8:	68fb      	ldr	r3, [r7, #12]
 80021da:	f04f 0200 	mov.w	r2, #0
 80021de:	60da      	str	r2, [r3, #12]
	handle->OldElecSpeed = (0.0f);
 80021e0:	68fb      	ldr	r3, [r7, #12]
 80021e2:	f04f 0200 	mov.w	r2, #0
 80021e6:	611a      	str	r2, [r3, #16]
	handle->ElecFilterSpeed = (0.0f);
 80021e8:	68fb      	ldr	r3, [r7, #12]
 80021ea:	f04f 0200 	mov.w	r2, #0
 80021ee:	619a      	str	r2, [r3, #24]
	handle->ElecFilterSpeedRatio = (0.0f);// 1/(1+2*pi*Fc*Ts)
 80021f0:	68fb      	ldr	r3, [r7, #12]
 80021f2:	f04f 0200 	mov.w	r2, #0
 80021f6:	615a      	str	r2, [r3, #20]

	return(handle);
 80021f8:	68fb      	ldr	r3, [r7, #12]
}
 80021fa:	4618      	mov	r0, r3
 80021fc:	3714      	adds	r7, #20
 80021fe:	46bd      	mov	sp, r7
 8002200:	f85d 7b04 	ldr.w	r7, [sp], #4
 8002204:	4770      	bx	lr
 8002206:	bf00      	nop

08002208 <Speed_Run>:

void Speed_Run(SPEED_Handle handle)
{
 8002208:	b580      	push	{r7, lr}
 800220a:	b084      	sub	sp, #16
 800220c:	af00      	add	r7, sp, #0
 800220e:	6078      	str	r0, [r7, #4]
	SPEED_Obj *obj = (SPEED_Obj *)handle;
 8002210:	687b      	ldr	r3, [r7, #4]
 8002212:	60fb      	str	r3, [r7, #12]

	Speed_UpdateElecSpeed( obj );
 8002214:	68f8      	ldr	r0, [r7, #12]
 8002216:	f7ff ffb7 	bl	8002188 <Speed_UpdateElecSpeed>
	// Need to Change the Time between Elec And OldElec According to Speed
	// 1kHz:1ms ElecSpeed:500Hz RealSpeed:125Hz@4poles, 2kHz:0.5ms ElecSpeed:500Hz RealSpeed:125Hz@4poles,
	if( MATH_abs(obj->ElecTheta - obj->OldElecTheta) > (0.5f) )
 800221a:	68fb      	ldr	r3, [r7, #12]
 800221c:	ed93 7a00 	vldr	s14, [r3]
 8002220:	68fb      	ldr	r3, [r7, #12]
 8002222:	edd3 7a01 	vldr	s15, [r3, #4]
 8002226:	ee77 7a67 	vsub.f32	s15, s14, s15
 800222a:	eeb0 0a67 	vmov.f32	s0, s15
 800222e:	f7ff ff7d 	bl	800212c <MATH_abs>
 8002232:	eeb0 7a40 	vmov.f32	s14, s0
 8002236:	eef6 7a00 	vmov.f32	s15, #96	; 0x60
 800223a:	eeb4 7ae7 	vcmpe.f32	s14, s15
 800223e:	eef1 fa10 	vmrs	APSR_nzcv, fpscr
 8002242:	dd50      	ble.n	80022e6 <Speed_Run+0xde>
	{
		if( (obj->ElecTheta + (1.0f)- obj->OldElecTheta)<(0.5f) )
 8002244:	68fb      	ldr	r3, [r7, #12]
 8002246:	edd3 7a00 	vldr	s15, [r3]
 800224a:	eeb7 7a00 	vmov.f32	s14, #112	; 0x70
 800224e:	ee37 7a87 	vadd.f32	s14, s15, s14
 8002252:	68fb      	ldr	r3, [r7, #12]
 8002254:	edd3 7a01 	vldr	s15, [r3, #4]
 8002258:	ee77 7a67 	vsub.f32	s15, s14, s15
 800225c:	eeb6 7a00 	vmov.f32	s14, #96	; 0x60
 8002260:	eef4 7ac7 	vcmpe.f32	s15, s14
 8002264:	eef1 fa10 	vmrs	APSR_nzcv, fpscr
 8002268:	d514      	bpl.n	8002294 <Speed_Run+0x8c>
		{
			obj->ElecSpeed = ( obj->ElecThetaChagTimeRatio * (obj->ElecTheta +(1.0f)- obj->OldElecTheta) );
 800226a:	68fb      	ldr	r3, [r7, #12]
 800226c:	ed93 7a02 	vldr	s14, [r3, #8]
 8002270:	68fb      	ldr	r3, [r7, #12]
 8002272:	edd3 7a00 	vldr	s15, [r3]
 8002276:	eef7 6a00 	vmov.f32	s13, #112	; 0x70
 800227a:	ee77 6aa6 	vadd.f32	s13, s15, s13
 800227e:	68fb      	ldr	r3, [r7, #12]
 8002280:	edd3 7a01 	vldr	s15, [r3, #4]
 8002284:	ee76 7ae7 	vsub.f32	s15, s13, s15
 8002288:	ee67 7a27 	vmul.f32	s15, s14, s15
 800228c:	68fb      	ldr	r3, [r7, #12]
 800228e:	edc3 7a03 	vstr	s15, [r3, #12]
 8002292:	e038      	b.n	8002306 <Speed_Run+0xfe>
		}
		else if( (obj->ElecTheta - (1.0f) - obj->OldElecTheta)>(-0.5f) )
 8002294:	68fb      	ldr	r3, [r7, #12]
 8002296:	edd3 7a00 	vldr	s15, [r3]
 800229a:	eeb7 7a00 	vmov.f32	s14, #112	; 0x70
 800229e:	ee37 7ac7 	vsub.f32	s14, s15, s14
 80022a2:	68fb      	ldr	r3, [r7, #12]
 80022a4:	edd3 7a01 	vldr	s15, [r3, #4]
 80022a8:	ee77 7a67 	vsub.f32	s15, s14, s15
 80022ac:	eebe 7a00 	vmov.f32	s14, #224	; 0xe0
 80022b0:	eef4 7ac7 	vcmpe.f32	s15, s14
 80022b4:	eef1 fa10 	vmrs	APSR_nzcv, fpscr
 80022b8:	dc00      	bgt.n	80022bc <Speed_Run+0xb4>
 80022ba:	e024      	b.n	8002306 <Speed_Run+0xfe>
		{
			obj->ElecSpeed = ( obj->ElecThetaChagTimeRatio * (obj->ElecTheta -(1.0f)- obj->OldElecTheta) );
 80022bc:	68fb      	ldr	r3, [r7, #12]
 80022be:	ed93 7a02 	vldr	s14, [r3, #8]
 80022c2:	68fb      	ldr	r3, [r7, #12]
 80022c4:	edd3 7a00 	vldr	s15, [r3]
 80022c8:	eef7 6a00 	vmov.f32	s13, #112	; 0x70
 80022cc:	ee77 6ae6 	vsub.f32	s13, s15, s13
 80022d0:	68fb      	ldr	r3, [r7, #12]
 80022d2:	edd3 7a01 	vldr	s15, [r3, #4]
 80022d6:	ee76 7ae7 	vsub.f32	s15, s13, s15
 80022da:	ee67 7a27 	vmul.f32	s15, s14, s15
 80022de:	68fb      	ldr	r3, [r7, #12]
 80022e0:	edc3 7a03 	vstr	s15, [r3, #12]
 80022e4:	e00f      	b.n	8002306 <Speed_Run+0xfe>
		}
	}
	else
	{
		obj->ElecSpeed = ( obj->ElecThetaChagTimeRatio * (obj->ElecTheta - obj->OldElecTheta) );
 80022e6:	68fb      	ldr	r3, [r7, #12]
 80022e8:	ed93 7a02 	vldr	s14, [r3, #8]
 80022ec:	68fb      	ldr	r3, [r7, #12]
 80022ee:	edd3 6a00 	vldr	s13, [r3]
 80022f2:	68fb      	ldr	r3, [r7, #12]
 80022f4:	edd3 7a01 	vldr	s15, [r3, #4]
 80022f8:	ee76 7ae7 	vsub.f32	s15, s13, s15
 80022fc:	ee67 7a27 	vmul.f32	s15, s14, s15
 8002300:	68fb      	ldr	r3, [r7, #12]
 8002302:	edc3 7a03 	vstr	s15, [r3, #12]
	}
	obj->OldElecSpeed = obj->ElecFilterSpeed;
 8002306:	68fb      	ldr	r3, [r7, #12]
 8002308:	699a      	ldr	r2, [r3, #24]
 800230a:	68fb      	ldr	r3, [r7, #12]
 800230c:	611a      	str	r2, [r3, #16]
	obj->ElecFilterSpeed = obj->ElecSpeed;
 800230e:	68fb      	ldr	r3, [r7, #12]
 8002310:	68da      	ldr	r2, [r3, #12]
 8002312:	68fb      	ldr	r3, [r7, #12]
 8002314:	619a      	str	r2, [r3, #24]
	// Need to Change the Time between ElecSpeed And OldElecSpeed According to Acceleration
	// 1.0f@10ms:0.1f@1ms=>FreqRespose100HzORTimeRespose10ms:0~1.0f(800Hz) And the FilterFreq must 10x;
	if( MATH_abs(obj->ElecFilterSpeed - obj->OldElecSpeed) > (0.1f) )
 8002316:	68fb      	ldr	r3, [r7, #12]
 8002318:	ed93 7a06 	vldr	s14, [r3, #24]
 800231c:	68fb      	ldr	r3, [r7, #12]
 800231e:	edd3 7a04 	vldr	s15, [r3, #16]
 8002322:	ee77 7a67 	vsub.f32	s15, s14, s15
 8002326:	eeb0 0a67 	vmov.f32	s0, s15
 800232a:	f7ff feff 	bl	800212c <MATH_abs>
 800232e:	eeb0 7a40 	vmov.f32	s14, s0
 8002332:	eddf 7a09 	vldr	s15, [pc, #36]	; 8002358 <Speed_Run+0x150>
 8002336:	eeb4 7ae7 	vcmpe.f32	s14, s15
 800233a:	eef1 fa10 	vmrs	APSR_nzcv, fpscr
 800233e:	dd03      	ble.n	8002348 <Speed_Run+0x140>
	{
		obj->ElecFilterSpeed = obj->OldElecSpeed;
 8002340:	68fb      	ldr	r3, [r7, #12]
 8002342:	691a      	ldr	r2, [r3, #16]
 8002344:	68fb      	ldr	r3, [r7, #12]
 8002346:	619a      	str	r2, [r3, #24]
	}
//	else
//	{
		Speed_UpdateElecTheta(obj);
 8002348:	68f8      	ldr	r0, [r7, #12]
 800234a:	f7ff ff0d 	bl	8002168 <Speed_UpdateElecTheta>

//	obj->ElecFilterSpeed = (obj->ElecSpeed * ((1.0f)-obj->ElecFilterSpeedRatio)) + (obj->ElecFilterSpeed * obj->ElecFilterSpeedRatio);

//	obj->ElecFilterSpeed = MATH_sat(obj->ElecFilterSpeed, (2.0f), (-2.0f));

	return;
 800234e:	bf00      	nop
}
 8002350:	3710      	adds	r7, #16
 8002352:	46bd      	mov	sp, r7
 8002354:	bd80      	pop	{r7, pc}
 8002356:	bf00      	nop
 8002358:	3dcccccd 	.word	0x3dcccccd

0800235c <CLARKE_init>:

// **************************************************************************
// the functions

CLARKE_Handle CLARKE_init(void *pMemory,const size_t numBytes)
{
 800235c:	b480      	push	{r7}
 800235e:	b085      	sub	sp, #20
 8002360:	af00      	add	r7, sp, #0
 8002362:	6078      	str	r0, [r7, #4]
 8002364:	6039      	str	r1, [r7, #0]
  CLARKE_Handle handle;

  if(numBytes < sizeof(CLARKE_Obj))
 8002366:	683b      	ldr	r3, [r7, #0]
 8002368:	2b0b      	cmp	r3, #11
 800236a:	d801      	bhi.n	8002370 <CLARKE_init+0x14>
    return((CLARKE_Handle)NULL);
 800236c:	2300      	movs	r3, #0
 800236e:	e002      	b.n	8002376 <CLARKE_init+0x1a>

  // assign the handle
  handle = (CLARKE_Handle)pMemory;
 8002370:	687b      	ldr	r3, [r7, #4]
 8002372:	60fb      	str	r3, [r7, #12]

  return(handle);
 8002374:	68fb      	ldr	r3, [r7, #12]
} // end of CLARKE_init() function
 8002376:	4618      	mov	r0, r3
 8002378:	3714      	adds	r7, #20
 800237a:	46bd      	mov	sp, r7
 800237c:	f85d 7b04 	ldr.w	r7, [sp], #4
 8002380:	4770      	bx	lr
 8002382:	bf00      	nop

08002384 <MATH_abs>:

//! \brief     Finds the absolute value 
//! \param[in] in   The input value
//! \return    The absolute value
static inline float_t MATH_abs(const float_t in)
{
 8002384:	b480      	push	{r7}
 8002386:	b085      	sub	sp, #20
 8002388:	af00      	add	r7, sp, #0
 800238a:	ed87 0a01 	vstr	s0, [r7, #4]
  float_t out = in;
 800238e:	687b      	ldr	r3, [r7, #4]
 8002390:	60fb      	str	r3, [r7, #12]


  if(in < 0.0f)
 8002392:	edd7 7a01 	vldr	s15, [r7, #4]
 8002396:	eef5 7ac0 	vcmpe.f32	s15, #0.0
 800239a:	eef1 fa10 	vmrs	APSR_nzcv, fpscr
 800239e:	d505      	bpl.n	80023ac <MATH_abs+0x28>
    {
      out = -in;
 80023a0:	edd7 7a01 	vldr	s15, [r7, #4]
 80023a4:	eef1 7a67 	vneg.f32	s15, s15
 80023a8:	edc7 7a03 	vstr	s15, [r7, #12]
    }

  return(out);
 80023ac:	68fb      	ldr	r3, [r7, #12]
 80023ae:	ee07 3a90 	vmov	s15, r3
} // end of MATH_abs() function
 80023b2:	eeb0 0a67 	vmov.f32	s0, s15
 80023b6:	3714      	adds	r7, #20
 80023b8:	46bd      	mov	sp, r7
 80023ba:	f85d 7b04 	ldr.w	r7, [sp], #4
 80023be:	4770      	bx	lr

080023c0 <MATH_sat>:
//! \param[in] in   The input value
//! \param[in] max  The maximum value allowed
//! \param[in] min  The minimum value allowed
//! \return    The saturated value
static inline float_t MATH_sat(const float_t in,const float_t max,const float_t min)
{
 80023c0:	b480      	push	{r7}
 80023c2:	b087      	sub	sp, #28
 80023c4:	af00      	add	r7, sp, #0
 80023c6:	ed87 0a03 	vstr	s0, [r7, #12]
 80023ca:	edc7 0a02 	vstr	s1, [r7, #8]
 80023ce:	ed87 1a01 	vstr	s2, [r7, #4]
  float_t out = in;
 80023d2:	68fb      	ldr	r3, [r7, #12]
 80023d4:	617b      	str	r3, [r7, #20]


  if(in < min)
 80023d6:	ed97 7a03 	vldr	s14, [r7, #12]
 80023da:	edd7 7a01 	vldr	s15, [r7, #4]
 80023de:	eeb4 7ae7 	vcmpe.f32	s14, s15
 80023e2:	eef1 fa10 	vmrs	APSR_nzcv, fpscr
 80023e6:	d502      	bpl.n	80023ee <MATH_sat+0x2e>
    {
      out = min;
 80023e8:	687b      	ldr	r3, [r7, #4]
 80023ea:	617b      	str	r3, [r7, #20]
 80023ec:	e00a      	b.n	8002404 <MATH_sat+0x44>
    }
  else if(in > max)
 80023ee:	ed97 7a03 	vldr	s14, [r7, #12]
 80023f2:	edd7 7a02 	vldr	s15, [r7, #8]
 80023f6:	eeb4 7ae7 	vcmpe.f32	s14, s15
 80023fa:	eef1 fa10 	vmrs	APSR_nzcv, fpscr
 80023fe:	dd01      	ble.n	8002404 <MATH_sat+0x44>
    {
      out = max;
 8002400:	68bb      	ldr	r3, [r7, #8]
 8002402:	617b      	str	r3, [r7, #20]
    }

  return(out);
 8002404:	697b      	ldr	r3, [r7, #20]
 8002406:	ee07 3a90 	vmov	s15, r3
} // end of MATH_sat() function
 800240a:	eeb0 0a67 	vmov.f32	s0, s15
 800240e:	371c      	adds	r7, #28
 8002410:	46bd      	mov	sp, r7
 8002412:	f85d 7b04 	ldr.w	r7, [sp], #4
 8002416:	4770      	bx	lr

08002418 <CLARKE_run>:
//! \brief     Runs the Clarke transform module for three inputs
//! \param[in] handle  The Clarke transform handle
//! \param[in] pInVec        The pointer to the input vector
//! \param[in] pOutVec       The pointer to the output vector
static inline void CLARKE_run(CLARKE_Handle handle,const MATH_vec3 *pInVec,MATH_vec2 *pOutVec)//! \Mod By Dl.K
{
 8002418:	b480      	push	{r7}
 800241a:	b089      	sub	sp, #36	; 0x24
 800241c:	af00      	add	r7, sp, #0
 800241e:	60f8      	str	r0, [r7, #12]
 8002420:	60b9      	str	r1, [r7, #8]
 8002422:	607a      	str	r2, [r7, #4]
  CLARKE_Obj *obj = (CLARKE_Obj *)handle;
 8002424:	68fb      	ldr	r3, [r7, #12]
 8002426:	61fb      	str	r3, [r7, #28]

  uint_least8_t numSensors = obj->numSensors;
 8002428:	69fb      	ldr	r3, [r7, #28]
 800242a:	7a1b      	ldrb	r3, [r3, #8]
 800242c:	76fb      	strb	r3, [r7, #27]

  float_t alpha_sf = obj->alpha_sf;
 800242e:	69fb      	ldr	r3, [r7, #28]
 8002430:	681b      	ldr	r3, [r3, #0]
 8002432:	617b      	str	r3, [r7, #20]
  float_t beta_sf = obj->beta_sf;
 8002434:	69fb      	ldr	r3, [r7, #28]
 8002436:	685b      	ldr	r3, [r3, #4]
 8002438:	613b      	str	r3, [r7, #16]


  if(numSensors == 3)
 800243a:	7efb      	ldrb	r3, [r7, #27]
 800243c:	2b03      	cmp	r3, #3
 800243e:	d125      	bne.n	800248c <CLARKE_run+0x74>
    {
      pOutVec->value[0] = ( (2.0f*(pInVec->value[0]) - (pInVec->value[1] + pInVec->value[2])) * alpha_sf );
 8002440:	68bb      	ldr	r3, [r7, #8]
 8002442:	edd3 7a00 	vldr	s15, [r3]
 8002446:	ee37 7aa7 	vadd.f32	s14, s15, s15
 800244a:	68bb      	ldr	r3, [r7, #8]
 800244c:	edd3 6a01 	vldr	s13, [r3, #4]
 8002450:	68bb      	ldr	r3, [r7, #8]
 8002452:	edd3 7a02 	vldr	s15, [r3, #8]
 8002456:	ee76 7aa7 	vadd.f32	s15, s13, s15
 800245a:	ee37 7a67 	vsub.f32	s14, s14, s15
 800245e:	edd7 7a05 	vldr	s15, [r7, #20]
 8002462:	ee67 7a27 	vmul.f32	s15, s14, s15
 8002466:	687b      	ldr	r3, [r7, #4]
 8002468:	edc3 7a00 	vstr	s15, [r3]
      pOutVec->value[1] = (pInVec->value[1] - pInVec->value[2] * beta_sf);
 800246c:	68bb      	ldr	r3, [r7, #8]
 800246e:	ed93 7a01 	vldr	s14, [r3, #4]
 8002472:	68bb      	ldr	r3, [r7, #8]
 8002474:	edd3 6a02 	vldr	s13, [r3, #8]
 8002478:	edd7 7a04 	vldr	s15, [r7, #16]
 800247c:	ee66 7aa7 	vmul.f32	s15, s13, s15
 8002480:	ee77 7a67 	vsub.f32	s15, s14, s15
 8002484:	687b      	ldr	r3, [r7, #4]
 8002486:	edc3 7a01 	vstr	s15, [r3, #4]
 800248a:	e01d      	b.n	80024c8 <CLARKE_run+0xb0>
    }
  else if(numSensors == 2)
 800248c:	7efb      	ldrb	r3, [r7, #27]
 800248e:	2b02      	cmp	r3, #2
 8002490:	d11a      	bne.n	80024c8 <CLARKE_run+0xb0>
    {
      pOutVec->value[0] = (pInVec->value[0] * alpha_sf);
 8002492:	68bb      	ldr	r3, [r7, #8]
 8002494:	ed93 7a00 	vldr	s14, [r3]
 8002498:	edd7 7a05 	vldr	s15, [r7, #20]
 800249c:	ee67 7a27 	vmul.f32	s15, s14, s15
 80024a0:	687b      	ldr	r3, [r7, #4]
 80024a2:	edc3 7a00 	vstr	s15, [r3]
      pOutVec->value[1] = ( (pInVec->value[0] + 2.0f*(pInVec->value[1])) * beta_sf );
 80024a6:	68bb      	ldr	r3, [r7, #8]
 80024a8:	ed93 7a00 	vldr	s14, [r3]
 80024ac:	68bb      	ldr	r3, [r7, #8]
 80024ae:	edd3 7a01 	vldr	s15, [r3, #4]
 80024b2:	ee77 7aa7 	vadd.f32	s15, s15, s15
 80024b6:	ee37 7a27 	vadd.f32	s14, s14, s15
 80024ba:	edd7 7a04 	vldr	s15, [r7, #16]
 80024be:	ee67 7a27 	vmul.f32	s15, s14, s15
 80024c2:	687b      	ldr	r3, [r7, #4]
 80024c4:	edc3 7a01 	vstr	s15, [r3, #4]
    }

  return;
 80024c8:	bf00      	nop
} // end of CLARKE_run() function
 80024ca:	3724      	adds	r7, #36	; 0x24
 80024cc:	46bd      	mov	sp, r7
 80024ce:	f85d 7b04 	ldr.w	r7, [sp], #4
 80024d2:	4770      	bx	lr

080024d4 <CLARKE_setNumSensors>:

//! \brief     Sets the number of sensors
//! \param[in] handle  The Clarke transform handle
//! \param[in] numSensors    The number of sensors
static inline void CLARKE_setNumSensors(CLARKE_Handle handle,const uint_least8_t numSensors)//! \Mod By Dl.K
{
 80024d4:	b480      	push	{r7}
 80024d6:	b085      	sub	sp, #20
 80024d8:	af00      	add	r7, sp, #0
 80024da:	6078      	str	r0, [r7, #4]
 80024dc:	460b      	mov	r3, r1
 80024de:	70fb      	strb	r3, [r7, #3]
  CLARKE_Obj *obj = (CLARKE_Obj *)handle;
 80024e0:	687b      	ldr	r3, [r7, #4]
 80024e2:	60fb      	str	r3, [r7, #12]

  obj->numSensors = numSensors;
 80024e4:	68fb      	ldr	r3, [r7, #12]
 80024e6:	78fa      	ldrb	r2, [r7, #3]
 80024e8:	721a      	strb	r2, [r3, #8]

  return;
 80024ea:	bf00      	nop
} // end of CLARKE_setNumSensors() function
 80024ec:	3714      	adds	r7, #20
 80024ee:	46bd      	mov	sp, r7
 80024f0:	f85d 7b04 	ldr.w	r7, [sp], #4
 80024f4:	4770      	bx	lr
 80024f6:	bf00      	nop

080024f8 <CLARKE_setScaleFactors>:
//! \brief     Sets the scale factors
//! \param[in] handle  The Clarke transform handle
//! \param[in] alpha_sf      The scale factor for the alpha voltage
//! \param[in] beta_sf       The scale factor for the beta voltage
static inline void CLARKE_setScaleFactors(CLARKE_Handle handle,const float_t alpha_sf,const float_t beta_sf)//! \Mod By Dl.K
{
 80024f8:	b480      	push	{r7}
 80024fa:	b087      	sub	sp, #28
 80024fc:	af00      	add	r7, sp, #0
 80024fe:	60f8      	str	r0, [r7, #12]
 8002500:	ed87 0a02 	vstr	s0, [r7, #8]
 8002504:	edc7 0a01 	vstr	s1, [r7, #4]
  CLARKE_Obj *obj = (CLARKE_Obj *)handle;
 8002508:	68fb      	ldr	r3, [r7, #12]
 800250a:	617b      	str	r3, [r7, #20]


  obj->alpha_sf = alpha_sf;
 800250c:	697b      	ldr	r3, [r7, #20]
 800250e:	68ba      	ldr	r2, [r7, #8]
 8002510:	601a      	str	r2, [r3, #0]
  obj->beta_sf = beta_sf;
 8002512:	697b      	ldr	r3, [r7, #20]
 8002514:	687a      	ldr	r2, [r7, #4]
 8002516:	605a      	str	r2, [r3, #4]

  return;
 8002518:	bf00      	nop
} // end of CLARKE_setScaleFactors() function
 800251a:	371c      	adds	r7, #28
 800251c:	46bd      	mov	sp, r7
 800251e:	f85d 7b04 	ldr.w	r7, [sp], #4
 8002522:	4770      	bx	lr

08002524 <PARK_run>:
//! \brief     Runs the Park transform module
//! \param[in] handle  The Park transform handle
//! \param[in] pInVec      The pointer to the input vector
//! \param[in] pOutVec     The pointer to the output vector
static inline void PARK_run(PARK_Handle handle,const MATH_vec2 *pInVec,MATH_vec2 *pOutVec)//! \Mod By Dl.K
{
 8002524:	b480      	push	{r7}
 8002526:	b08b      	sub	sp, #44	; 0x2c
 8002528:	af00      	add	r7, sp, #0
 800252a:	60f8      	str	r0, [r7, #12]
 800252c:	60b9      	str	r1, [r7, #8]
 800252e:	607a      	str	r2, [r7, #4]
  PARK_Obj *obj = (PARK_Obj *)handle;
 8002530:	68fb      	ldr	r3, [r7, #12]
 8002532:	627b      	str	r3, [r7, #36]	; 0x24

  float_t sinTh = obj->sinTh;
 8002534:	6a7b      	ldr	r3, [r7, #36]	; 0x24
 8002536:	681b      	ldr	r3, [r3, #0]
 8002538:	623b      	str	r3, [r7, #32]
  float_t cosTh = obj->cosTh;
 800253a:	6a7b      	ldr	r3, [r7, #36]	; 0x24
 800253c:	685b      	ldr	r3, [r3, #4]
 800253e:	61fb      	str	r3, [r7, #28]

  float_t value_0 = pInVec->value[0];
 8002540:	68bb      	ldr	r3, [r7, #8]
 8002542:	681b      	ldr	r3, [r3, #0]
 8002544:	61bb      	str	r3, [r7, #24]
  float_t value_1 = pInVec->value[1];
 8002546:	68bb      	ldr	r3, [r7, #8]
 8002548:	685b      	ldr	r3, [r3, #4]
 800254a:	617b      	str	r3, [r7, #20]


  pOutVec->value[0] = (value_0*cosTh) + (value_1*sinTh);
 800254c:	ed97 7a06 	vldr	s14, [r7, #24]
 8002550:	edd7 7a07 	vldr	s15, [r7, #28]
 8002554:	ee27 7a27 	vmul.f32	s14, s14, s15
 8002558:	edd7 6a05 	vldr	s13, [r7, #20]
 800255c:	edd7 7a08 	vldr	s15, [r7, #32]
 8002560:	ee66 7aa7 	vmul.f32	s15, s13, s15
 8002564:	ee77 7a27 	vadd.f32	s15, s14, s15
 8002568:	687b      	ldr	r3, [r7, #4]
 800256a:	edc3 7a00 	vstr	s15, [r3]
  pOutVec->value[1] = (value_1*cosTh) - (value_0*sinTh);
 800256e:	ed97 7a05 	vldr	s14, [r7, #20]
 8002572:	edd7 7a07 	vldr	s15, [r7, #28]
 8002576:	ee27 7a27 	vmul.f32	s14, s14, s15
 800257a:	edd7 6a06 	vldr	s13, [r7, #24]
 800257e:	edd7 7a08 	vldr	s15, [r7, #32]
 8002582:	ee66 7aa7 	vmul.f32	s15, s13, s15
 8002586:	ee77 7a67 	vsub.f32	s15, s14, s15
 800258a:	687b      	ldr	r3, [r7, #4]
 800258c:	edc3 7a01 	vstr	s15, [r3, #4]

  return;
 8002590:	bf00      	nop
} // end of PARK_run() function
 8002592:	372c      	adds	r7, #44	; 0x2c
 8002594:	46bd      	mov	sp, r7
 8002596:	f85d 7b04 	ldr.w	r7, [sp], #4
 800259a:	4770      	bx	lr

0800259c <PARK_setPhasor>:

//! \brief     Sets the cosine/sine phasor for the inverse Park transform
//! \param[in] handle   The Park transform handle
//! \param[in] pPhasor      The pointer to the cosine/sine phasor, pu
static inline void PARK_setPhasor(PARK_Handle handle,const MATH_vec2 *pPhasor)//! \Mod By Dl.K
{
 800259c:	b480      	push	{r7}
 800259e:	b085      	sub	sp, #20
 80025a0:	af00      	add	r7, sp, #0
 80025a2:	6078      	str	r0, [r7, #4]
 80025a4:	6039      	str	r1, [r7, #0]
  PARK_Obj *obj = (PARK_Obj *)handle;
 80025a6:	687b      	ldr	r3, [r7, #4]
 80025a8:	60fb      	str	r3, [r7, #12]

  obj->cosTh = pPhasor->value[0];
 80025aa:	683b      	ldr	r3, [r7, #0]
 80025ac:	681a      	ldr	r2, [r3, #0]
 80025ae:	68fb      	ldr	r3, [r7, #12]
 80025b0:	605a      	str	r2, [r3, #4]
  obj->sinTh = pPhasor->value[1];
 80025b2:	683b      	ldr	r3, [r7, #0]
 80025b4:	685a      	ldr	r2, [r3, #4]
 80025b6:	68fb      	ldr	r3, [r7, #12]
 80025b8:	601a      	str	r2, [r3, #0]

  return;
 80025ba:	bf00      	nop
} // end of PARK_setPhasor() function
 80025bc:	3714      	adds	r7, #20
 80025be:	46bd      	mov	sp, r7
 80025c0:	f85d 7b04 	ldr.w	r7, [sp], #4
 80025c4:	4770      	bx	lr
 80025c6:	bf00      	nop

080025c8 <IPARK_run>:
//! \brief     Runs the inverse Park transform module
//! \param[in] handle  The inverse Park transform handle
//! \param[in] pInVec       The pointer to the input vector
//! \param[in] pOutVec      The pointer to the output vector
static inline void IPARK_run(IPARK_Handle handle,const MATH_vec2 *pInVec,MATH_vec2 *pOutVec)//! \Mod By Dl.K
{
 80025c8:	b480      	push	{r7}
 80025ca:	b08b      	sub	sp, #44	; 0x2c
 80025cc:	af00      	add	r7, sp, #0
 80025ce:	60f8      	str	r0, [r7, #12]
 80025d0:	60b9      	str	r1, [r7, #8]
 80025d2:	607a      	str	r2, [r7, #4]
  IPARK_Obj *obj = (IPARK_Obj *)handle;
 80025d4:	68fb      	ldr	r3, [r7, #12]
 80025d6:	627b      	str	r3, [r7, #36]	; 0x24

  float_t sinTh = obj->sinTh;
 80025d8:	6a7b      	ldr	r3, [r7, #36]	; 0x24
 80025da:	681b      	ldr	r3, [r3, #0]
 80025dc:	623b      	str	r3, [r7, #32]
  float_t cosTh = obj->cosTh;
 80025de:	6a7b      	ldr	r3, [r7, #36]	; 0x24
 80025e0:	685b      	ldr	r3, [r3, #4]
 80025e2:	61fb      	str	r3, [r7, #28]

  float_t value_0 = pInVec->value[0];
 80025e4:	68bb      	ldr	r3, [r7, #8]
 80025e6:	681b      	ldr	r3, [r3, #0]
 80025e8:	61bb      	str	r3, [r7, #24]
  float_t value_1 = pInVec->value[1];
 80025ea:	68bb      	ldr	r3, [r7, #8]
 80025ec:	685b      	ldr	r3, [r3, #4]
 80025ee:	617b      	str	r3, [r7, #20]


  pOutVec->value[0] = (value_0*cosTh) - (value_1*sinTh);
 80025f0:	ed97 7a06 	vldr	s14, [r7, #24]
 80025f4:	edd7 7a07 	vldr	s15, [r7, #28]
 80025f8:	ee27 7a27 	vmul.f32	s14, s14, s15
 80025fc:	edd7 6a05 	vldr	s13, [r7, #20]
 8002600:	edd7 7a08 	vldr	s15, [r7, #32]
 8002604:	ee66 7aa7 	vmul.f32	s15, s13, s15
 8002608:	ee77 7a67 	vsub.f32	s15, s14, s15
 800260c:	687b      	ldr	r3, [r7, #4]
 800260e:	edc3 7a00 	vstr	s15, [r3]
  pOutVec->value[1] = (value_1*cosTh) + (value_0*sinTh);
 8002612:	ed97 7a05 	vldr	s14, [r7, #20]
 8002616:	edd7 7a07 	vldr	s15, [r7, #28]
 800261a:	ee27 7a27 	vmul.f32	s14, s14, s15
 800261e:	edd7 6a06 	vldr	s13, [r7, #24]
 8002622:	edd7 7a08 	vldr	s15, [r7, #32]
 8002626:	ee66 7aa7 	vmul.f32	s15, s13, s15
 800262a:	ee77 7a27 	vadd.f32	s15, s14, s15
 800262e:	687b      	ldr	r3, [r7, #4]
 8002630:	edc3 7a01 	vstr	s15, [r3, #4]

  return;
 8002634:	bf00      	nop
} // end of IPARK_run() function
 8002636:	372c      	adds	r7, #44	; 0x2c
 8002638:	46bd      	mov	sp, r7
 800263a:	f85d 7b04 	ldr.w	r7, [sp], #4
 800263e:	4770      	bx	lr

08002640 <IPARK_setPhasor>:

//! \brief     Sets the cosine/sine phasor for the inverse Park transform
//! \param[in] handle   The inverse Park transform handle
//! \param[in] pPhasor  The pointer to the cosine/sine phasor, pu
static inline void IPARK_setPhasor(IPARK_Handle handle,const MATH_vec2 *pPhasor)//! \Mod By Dl.K
{
 8002640:	b480      	push	{r7}
 8002642:	b085      	sub	sp, #20
 8002644:	af00      	add	r7, sp, #0
 8002646:	6078      	str	r0, [r7, #4]
 8002648:	6039      	str	r1, [r7, #0]
  IPARK_Obj *obj = (IPARK_Obj *)handle;
 800264a:	687b      	ldr	r3, [r7, #4]
 800264c:	60fb      	str	r3, [r7, #12]

  obj->cosTh = pPhasor->value[0];
 800264e:	683b      	ldr	r3, [r7, #0]
 8002650:	681a      	ldr	r2, [r3, #0]
 8002652:	68fb      	ldr	r3, [r7, #12]
 8002654:	605a      	str	r2, [r3, #4]
  obj->sinTh = pPhasor->value[1];
 8002656:	683b      	ldr	r3, [r7, #0]
 8002658:	685a      	ldr	r2, [r3, #4]
 800265a:	68fb      	ldr	r3, [r7, #12]
 800265c:	601a      	str	r2, [r3, #0]

  return;
 800265e:	bf00      	nop
} // end of IPARK_setPhasor() function
 8002660:	3714      	adds	r7, #20
 8002662:	46bd      	mov	sp, r7
 8002664:	f85d 7b04 	ldr.w	r7, [sp], #4
 8002668:	4770      	bx	lr
 800266a:	bf00      	nop

0800266c <FILTER_FO_run>:
//!
//! \param[in] handle      The filter handle
//! \param[in] inputValue  The input value to filter
//! \return    The output value from the filter
static inline float_t FILTER_FO_run(FILTER_FO_Handle handle,const float_t inputValue)
{
 800266c:	b480      	push	{r7}
 800266e:	b08b      	sub	sp, #44	; 0x2c
 8002670:	af00      	add	r7, sp, #0
 8002672:	6078      	str	r0, [r7, #4]
 8002674:	ed87 0a00 	vstr	s0, [r7]
  FILTER_FO_Obj *obj = (FILTER_FO_Obj *)handle;
 8002678:	687b      	ldr	r3, [r7, #4]
 800267a:	627b      	str	r3, [r7, #36]	; 0x24

  float a1 = obj->a1;
 800267c:	6a7b      	ldr	r3, [r7, #36]	; 0x24
 800267e:	681b      	ldr	r3, [r3, #0]
 8002680:	623b      	str	r3, [r7, #32]
  float b0 = obj->b0;
 8002682:	6a7b      	ldr	r3, [r7, #36]	; 0x24
 8002684:	685b      	ldr	r3, [r3, #4]
 8002686:	61fb      	str	r3, [r7, #28]
  float b1 = obj->b1;
 8002688:	6a7b      	ldr	r3, [r7, #36]	; 0x24
 800268a:	689b      	ldr	r3, [r3, #8]
 800268c:	61bb      	str	r3, [r7, #24]
  float x1 = obj->x1;
 800268e:	6a7b      	ldr	r3, [r7, #36]	; 0x24
 8002690:	68db      	ldr	r3, [r3, #12]
 8002692:	617b      	str	r3, [r7, #20]
  float y1 = obj->y1;
 8002694:	6a7b      	ldr	r3, [r7, #36]	; 0x24
 8002696:	691b      	ldr	r3, [r3, #16]
 8002698:	613b      	str	r3, [r7, #16]


  // compute the output
  //settestpin();

  float y0 = (b0 * inputValue) + (b1 * x1) - (a1 * y1);
 800269a:	ed97 7a07 	vldr	s14, [r7, #28]
 800269e:	edd7 7a00 	vldr	s15, [r7]
 80026a2:	ee27 7a27 	vmul.f32	s14, s14, s15
 80026a6:	edd7 6a06 	vldr	s13, [r7, #24]
 80026aa:	edd7 7a05 	vldr	s15, [r7, #20]
 80026ae:	ee66 7aa7 	vmul.f32	s15, s13, s15
 80026b2:	ee37 7a27 	vadd.f32	s14, s14, s15
 80026b6:	edd7 6a08 	vldr	s13, [r7, #32]
 80026ba:	edd7 7a04 	vldr	s15, [r7, #16]
 80026be:	ee66 7aa7 	vmul.f32	s15, s13, s15
 80026c2:	ee77 7a67 	vsub.f32	s15, s14, s15
 80026c6:	edc7 7a03 	vstr	s15, [r7, #12]
  //double y0 = 0;
  //cleartestpin();


  // store values for next time
  obj->x1 = inputValue;
 80026ca:	6a7b      	ldr	r3, [r7, #36]	; 0x24
 80026cc:	683a      	ldr	r2, [r7, #0]
 80026ce:	60da      	str	r2, [r3, #12]
  obj->y1 = (float_t)y0;
 80026d0:	6a7b      	ldr	r3, [r7, #36]	; 0x24
 80026d2:	68fa      	ldr	r2, [r7, #12]
 80026d4:	611a      	str	r2, [r3, #16]

  return((float_t)y0);
 80026d6:	68fb      	ldr	r3, [r7, #12]
 80026d8:	ee07 3a90 	vmov	s15, r3
} // end of FILTER_FO_run() function
 80026dc:	eeb0 0a67 	vmov.f32	s0, s15
 80026e0:	372c      	adds	r7, #44	; 0x2c
 80026e2:	46bd      	mov	sp, r7
 80026e4:	f85d 7b04 	ldr.w	r7, [sp], #4
 80026e8:	4770      	bx	lr
 80026ea:	bf00      	nop

080026ec <OFFSET_run>:
//!            x -> The ADC measurement
//!
//! \param[in] handle  The offset handle
//! \param[in] inputValue    The input value to offset filter
static inline void OFFSET_run(OFFSET_Handle handle,const float_t inputValue)
{
 80026ec:	b580      	push	{r7, lr}
 80026ee:	b084      	sub	sp, #16
 80026f0:	af00      	add	r7, sp, #0
 80026f2:	6078      	str	r0, [r7, #4]
 80026f4:	ed87 0a00 	vstr	s0, [r7]
  OFFSET_Obj *obj = (OFFSET_Obj *)handle;
 80026f8:	687b      	ldr	r3, [r7, #4]
 80026fa:	60fb      	str	r3, [r7, #12]

  obj->value = FILTER_FO_run(obj->filterHandle,inputValue);
 80026fc:	68fb      	ldr	r3, [r7, #12]
 80026fe:	69db      	ldr	r3, [r3, #28]
 8002700:	4618      	mov	r0, r3
 8002702:	ed97 0a00 	vldr	s0, [r7]
 8002706:	f7ff ffb1 	bl	800266c <FILTER_FO_run>
 800270a:	eef0 7a40 	vmov.f32	s15, s0
 800270e:	68fb      	ldr	r3, [r7, #12]
 8002710:	edc3 7a00 	vstr	s15, [r3]

  return;
 8002714:	bf00      	nop
} // end of OFFSET_run() function
 8002716:	3710      	adds	r7, #16
 8002718:	46bd      	mov	sp, r7
 800271a:	bd80      	pop	{r7, pc}

0800271c <PID_run>:
//! \param[in] handle      The PID controller handle
//! \param[in] refValue    The reference value to the controller
//! \param[in] fbackValue  The feedback value to the controller
//! \param[in] pOutValue   The pointer to the controller output value
static inline void PID_run(PID_Handle handle,const float_t refValue,const float_t fbackValue,float_t *pOutValue)//! \Mod By Dl.K
{
 800271c:	b580      	push	{r7, lr}
 800271e:	b088      	sub	sp, #32
 8002720:	af00      	add	r7, sp, #0
 8002722:	60f8      	str	r0, [r7, #12]
 8002724:	ed87 0a02 	vstr	s0, [r7, #8]
 8002728:	edc7 0a01 	vstr	s1, [r7, #4]
 800272c:	6039      	str	r1, [r7, #0]
  PID_Obj *obj = (PID_Obj *)handle;
 800272e:	68fb      	ldr	r3, [r7, #12]
 8002730:	61fb      	str	r3, [r7, #28]

  float_t Error;
  float_t Up,Ui;


  Error = refValue - fbackValue;
 8002732:	ed97 7a02 	vldr	s14, [r7, #8]
 8002736:	edd7 7a01 	vldr	s15, [r7, #4]
 800273a:	ee77 7a67 	vsub.f32	s15, s14, s15
 800273e:	edc7 7a06 	vstr	s15, [r7, #24]

  Ui = obj->Ui;                                                  // load the previous integral output
 8002742:	69fb      	ldr	r3, [r7, #28]
 8002744:	68db      	ldr	r3, [r3, #12]
 8002746:	617b      	str	r3, [r7, #20]
  Up = (obj->Kp * Error);                                    // Compute the proportional output
 8002748:	69fb      	ldr	r3, [r7, #28]
 800274a:	ed93 7a00 	vldr	s14, [r3]
 800274e:	edd7 7a06 	vldr	s15, [r7, #24]
 8002752:	ee67 7a27 	vmul.f32	s15, s14, s15
 8002756:	edc7 7a04 	vstr	s15, [r7, #16]
  Ui = MATH_sat(Ui + (obj->Ki * Up), obj->outMax, obj->outMin);  // Compute the integral output
 800275a:	69fb      	ldr	r3, [r7, #28]
 800275c:	ed93 7a01 	vldr	s14, [r3, #4]
 8002760:	edd7 7a04 	vldr	s15, [r7, #16]
 8002764:	ee27 7a27 	vmul.f32	s14, s14, s15
 8002768:	edd7 7a05 	vldr	s15, [r7, #20]
 800276c:	ee77 6a27 	vadd.f32	s13, s14, s15
 8002770:	69fb      	ldr	r3, [r7, #28]
 8002772:	ed93 7a07 	vldr	s14, [r3, #28]
 8002776:	69fb      	ldr	r3, [r7, #28]
 8002778:	edd3 7a06 	vldr	s15, [r3, #24]
 800277c:	eeb0 0a66 	vmov.f32	s0, s13
 8002780:	eef0 0a47 	vmov.f32	s1, s14
 8002784:	eeb0 1a67 	vmov.f32	s2, s15
 8002788:	f7ff fe1a 	bl	80023c0 <MATH_sat>
 800278c:	ed87 0a05 	vstr	s0, [r7, #20]

  obj->Ui = Ui;                                                  // store the intetral output
 8002790:	69fb      	ldr	r3, [r7, #28]
 8002792:	697a      	ldr	r2, [r7, #20]
 8002794:	60da      	str	r2, [r3, #12]
  obj->refValue = refValue;
 8002796:	69fb      	ldr	r3, [r7, #28]
 8002798:	68ba      	ldr	r2, [r7, #8]
 800279a:	611a      	str	r2, [r3, #16]
  obj->fbackValue = fbackValue;
 800279c:	69fb      	ldr	r3, [r7, #28]
 800279e:	687a      	ldr	r2, [r7, #4]
 80027a0:	615a      	str	r2, [r3, #20]

  *pOutValue = MATH_sat(Up + Ui, obj->outMax, obj->outMin);          // Saturate the output
 80027a2:	ed97 7a04 	vldr	s14, [r7, #16]
 80027a6:	edd7 7a05 	vldr	s15, [r7, #20]
 80027aa:	ee77 6a27 	vadd.f32	s13, s14, s15
 80027ae:	69fb      	ldr	r3, [r7, #28]
 80027b0:	ed93 7a07 	vldr	s14, [r3, #28]
 80027b4:	69fb      	ldr	r3, [r7, #28]
 80027b6:	edd3 7a06 	vldr	s15, [r3, #24]
 80027ba:	eeb0 0a66 	vmov.f32	s0, s13
 80027be:	eef0 0a47 	vmov.f32	s1, s14
 80027c2:	eeb0 1a67 	vmov.f32	s2, s15
 80027c6:	f7ff fdfb 	bl	80023c0 <MATH_sat>
 80027ca:	eef0 7a40 	vmov.f32	s15, s0
 80027ce:	683b      	ldr	r3, [r7, #0]
 80027d0:	edc3 7a00 	vstr	s15, [r3]

  return;
 80027d4:	bf00      	nop
} // end of PID_run() function
 80027d6:	3720      	adds	r7, #32
 80027d8:	46bd      	mov	sp, r7
 80027da:	bd80      	pop	{r7, pc}

080027dc <PID_run_spd>:
//! \param[in] handle      The PID controller handle
//! \param[in] refValue    The reference value to the controller
//! \param[in] fbackValue  The feedback value to the controller
//! \param[in] pOutValue   The pointer to the controller output value
static inline void PID_run_spd(PID_Handle handle,const float_t refValue,const float_t fbackValue,float_t *pOutValue)//! \Mod By Dl.K
{
 80027dc:	b580      	push	{r7, lr}
 80027de:	b088      	sub	sp, #32
 80027e0:	af00      	add	r7, sp, #0
 80027e2:	60f8      	str	r0, [r7, #12]
 80027e4:	ed87 0a02 	vstr	s0, [r7, #8]
 80027e8:	edc7 0a01 	vstr	s1, [r7, #4]
 80027ec:	6039      	str	r1, [r7, #0]
  PID_Obj *obj = (PID_Obj *)handle;
 80027ee:	68fb      	ldr	r3, [r7, #12]
 80027f0:	61fb      	str	r3, [r7, #28]

  float_t Error;
  float_t Up,Ui;

  Error = refValue - fbackValue;
 80027f2:	ed97 7a02 	vldr	s14, [r7, #8]
 80027f6:	edd7 7a01 	vldr	s15, [r7, #4]
 80027fa:	ee77 7a67 	vsub.f32	s15, s14, s15
 80027fe:	edc7 7a06 	vstr	s15, [r7, #24]

  Ui = obj->Ui;                                                     // load the previous integral output
 8002802:	69fb      	ldr	r3, [r7, #28]
 8002804:	68db      	ldr	r3, [r3, #12]
 8002806:	617b      	str	r3, [r7, #20]
  Up = (obj->Kp * Error);                                       // Compute the proportional output
 8002808:	69fb      	ldr	r3, [r7, #28]
 800280a:	ed93 7a00 	vldr	s14, [r3]
 800280e:	edd7 7a06 	vldr	s15, [r7, #24]
 8002812:	ee67 7a27 	vmul.f32	s15, s14, s15
 8002816:	edc7 7a04 	vstr	s15, [r7, #16]
  Ui = MATH_sat(Ui + (obj->Ki * Error), obj->outMax, obj->outMin);  // Compute the integral output
 800281a:	69fb      	ldr	r3, [r7, #28]
 800281c:	ed93 7a01 	vldr	s14, [r3, #4]
 8002820:	edd7 7a06 	vldr	s15, [r7, #24]
 8002824:	ee27 7a27 	vmul.f32	s14, s14, s15
 8002828:	edd7 7a05 	vldr	s15, [r7, #20]
 800282c:	ee77 6a27 	vadd.f32	s13, s14, s15
 8002830:	69fb      	ldr	r3, [r7, #28]
 8002832:	ed93 7a07 	vldr	s14, [r3, #28]
 8002836:	69fb      	ldr	r3, [r7, #28]
 8002838:	edd3 7a06 	vldr	s15, [r3, #24]
 800283c:	eeb0 0a66 	vmov.f32	s0, s13
 8002840:	eef0 0a47 	vmov.f32	s1, s14
 8002844:	eeb0 1a67 	vmov.f32	s2, s15
 8002848:	f7ff fdba 	bl	80023c0 <MATH_sat>
 800284c:	ed87 0a05 	vstr	s0, [r7, #20]

  obj->Ui = Ui;                                                     // store the intetral output
 8002850:	69fb      	ldr	r3, [r7, #28]
 8002852:	697a      	ldr	r2, [r7, #20]
 8002854:	60da      	str	r2, [r3, #12]
  obj->refValue = refValue;
 8002856:	69fb      	ldr	r3, [r7, #28]
 8002858:	68ba      	ldr	r2, [r7, #8]
 800285a:	611a      	str	r2, [r3, #16]
  obj->fbackValue = fbackValue;
 800285c:	69fb      	ldr	r3, [r7, #28]
 800285e:	687a      	ldr	r2, [r7, #4]
 8002860:	615a      	str	r2, [r3, #20]

  *pOutValue = MATH_sat(Up + Ui, obj->outMax, obj->outMin);             // Saturate the output
 8002862:	ed97 7a04 	vldr	s14, [r7, #16]
 8002866:	edd7 7a05 	vldr	s15, [r7, #20]
 800286a:	ee77 6a27 	vadd.f32	s13, s14, s15
 800286e:	69fb      	ldr	r3, [r7, #28]
 8002870:	ed93 7a07 	vldr	s14, [r3, #28]
 8002874:	69fb      	ldr	r3, [r7, #28]
 8002876:	edd3 7a06 	vldr	s15, [r3, #24]
 800287a:	eeb0 0a66 	vmov.f32	s0, s13
 800287e:	eef0 0a47 	vmov.f32	s1, s14
 8002882:	eeb0 1a67 	vmov.f32	s2, s15
 8002886:	f7ff fd9b 	bl	80023c0 <MATH_sat>
 800288a:	eef0 7a40 	vmov.f32	s15, s0
 800288e:	683b      	ldr	r3, [r7, #0]
 8002890:	edc3 7a00 	vstr	s15, [r3]

  return;
 8002894:	bf00      	nop
} // end of PID_run_spd() function
 8002896:	3720      	adds	r7, #32
 8002898:	46bd      	mov	sp, r7
 800289a:	bd80      	pop	{r7, pc}

0800289c <PID_setGains>:
//! \param[in] handle  The PID controller handle
//! \param[in] Kp      The proportional gain for the PID controller
//! \param[in] Ki      The integrator gain for the PID controller
//! \param[in] Kd      The derivative gain for the PID controller
static inline void PID_setGains(PID_Handle handle,const float_t Kp,const float_t Ki,const float_t Kd)//! \Mod By Dl.K
{
 800289c:	b480      	push	{r7}
 800289e:	b087      	sub	sp, #28
 80028a0:	af00      	add	r7, sp, #0
 80028a2:	60f8      	str	r0, [r7, #12]
 80028a4:	ed87 0a02 	vstr	s0, [r7, #8]
 80028a8:	edc7 0a01 	vstr	s1, [r7, #4]
 80028ac:	ed87 1a00 	vstr	s2, [r7]
  PID_Obj *obj = (PID_Obj *)handle;
 80028b0:	68fb      	ldr	r3, [r7, #12]
 80028b2:	617b      	str	r3, [r7, #20]

  obj->Kp = Kp;
 80028b4:	697b      	ldr	r3, [r7, #20]
 80028b6:	68ba      	ldr	r2, [r7, #8]
 80028b8:	601a      	str	r2, [r3, #0]
  obj->Ki = Ki;
 80028ba:	697b      	ldr	r3, [r7, #20]
 80028bc:	687a      	ldr	r2, [r7, #4]
 80028be:	605a      	str	r2, [r3, #4]
  obj->Kd = Kd;
 80028c0:	697b      	ldr	r3, [r7, #20]
 80028c2:	683a      	ldr	r2, [r7, #0]
 80028c4:	609a      	str	r2, [r3, #8]

  return;
 80028c6:	bf00      	nop
} // end of PID_setGains() function
 80028c8:	371c      	adds	r7, #28
 80028ca:	46bd      	mov	sp, r7
 80028cc:	f85d 7b04 	ldr.w	r7, [sp], #4
 80028d0:	4770      	bx	lr
 80028d2:	bf00      	nop

080028d4 <PID_setKi>:

//! \brief     Sets the integral gain in the PID controller
//! \param[in] handle  The PID controller handle
//! \param[in] Ki      The integral gain for the PID controller
static inline void PID_setKi(PID_Handle handle,const float_t Ki)//! \Mod By Dl.K
{
 80028d4:	b480      	push	{r7}
 80028d6:	b085      	sub	sp, #20
 80028d8:	af00      	add	r7, sp, #0
 80028da:	6078      	str	r0, [r7, #4]
 80028dc:	ed87 0a00 	vstr	s0, [r7]
  PID_Obj *obj = (PID_Obj *)handle;
 80028e0:	687b      	ldr	r3, [r7, #4]
 80028e2:	60fb      	str	r3, [r7, #12]

  obj->Ki = Ki;
 80028e4:	68fb      	ldr	r3, [r7, #12]
 80028e6:	683a      	ldr	r2, [r7, #0]
 80028e8:	605a      	str	r2, [r3, #4]

  return;
 80028ea:	bf00      	nop
} // end of PID_setKi() function
 80028ec:	3714      	adds	r7, #20
 80028ee:	46bd      	mov	sp, r7
 80028f0:	f85d 7b04 	ldr.w	r7, [sp], #4
 80028f4:	4770      	bx	lr
 80028f6:	bf00      	nop

080028f8 <PID_setKp>:

//! \brief     Sets the proportional gain in the PID controller
//! \param[in] handle  The PID controller handle
//! \param[in] Kp      The proportional gain for the PID controller
static inline void PID_setKp(PID_Handle handle,const float_t Kp)//! \Mod By Dl.K
{
 80028f8:	b480      	push	{r7}
 80028fa:	b085      	sub	sp, #20
 80028fc:	af00      	add	r7, sp, #0
 80028fe:	6078      	str	r0, [r7, #4]
 8002900:	ed87 0a00 	vstr	s0, [r7]
  PID_Obj *obj = (PID_Obj *)handle;
 8002904:	687b      	ldr	r3, [r7, #4]
 8002906:	60fb      	str	r3, [r7, #12]

  obj->Kp = Kp;
 8002908:	68fb      	ldr	r3, [r7, #12]
 800290a:	683a      	ldr	r2, [r7, #0]
 800290c:	601a      	str	r2, [r3, #0]

  return;
 800290e:	bf00      	nop
} // end of PID_setKp() function
 8002910:	3714      	adds	r7, #20
 8002912:	46bd      	mov	sp, r7
 8002914:	f85d 7b04 	ldr.w	r7, [sp], #4
 8002918:	4770      	bx	lr
 800291a:	bf00      	nop

0800291c <PID_setMinMax>:
//! \brief     Sets the minimum and maximum output value allowed in the PID controller
//! \param[in] handle  The PID controller handle
//! \param[in] outMin  The minimum output value allowed
//! \param[in] outMax  The maximum output value allowed
static inline void PID_setMinMax(PID_Handle handle,const float_t outMin,const float_t outMax)//! \Mod By Dl.K
{
 800291c:	b480      	push	{r7}
 800291e:	b087      	sub	sp, #28
 8002920:	af00      	add	r7, sp, #0
 8002922:	60f8      	str	r0, [r7, #12]
 8002924:	ed87 0a02 	vstr	s0, [r7, #8]
 8002928:	edc7 0a01 	vstr	s1, [r7, #4]
  PID_Obj *obj = (PID_Obj *)handle;
 800292c:	68fb      	ldr	r3, [r7, #12]
 800292e:	617b      	str	r3, [r7, #20]

  obj->outMin = outMin;
 8002930:	697b      	ldr	r3, [r7, #20]
 8002932:	68ba      	ldr	r2, [r7, #8]
 8002934:	619a      	str	r2, [r3, #24]
  obj->outMax = outMax;
 8002936:	697b      	ldr	r3, [r7, #20]
 8002938:	687a      	ldr	r2, [r7, #4]
 800293a:	61da      	str	r2, [r3, #28]

  return;
 800293c:	bf00      	nop
} // end of PID_setMinMax() function
 800293e:	371c      	adds	r7, #28
 8002940:	46bd      	mov	sp, r7
 8002942:	f85d 7b04 	ldr.w	r7, [sp], #4
 8002946:	4770      	bx	lr

08002948 <PID_setUi>:

//! \brief     Sets the integrator start value in the PID controller
//! \param[in] handle  The PID controller handle
//! \param[in] Ui         The integral start value for the PID controller
static inline void PID_setUi(PID_Handle handle,const float_t Ui)//! \Mod By Dl.K
{
 8002948:	b480      	push	{r7}
 800294a:	b085      	sub	sp, #20
 800294c:	af00      	add	r7, sp, #0
 800294e:	6078      	str	r0, [r7, #4]
 8002950:	ed87 0a00 	vstr	s0, [r7]
  PID_Obj *obj = (PID_Obj *)handle;
 8002954:	687b      	ldr	r3, [r7, #4]
 8002956:	60fb      	str	r3, [r7, #12]

  obj->Ui = Ui;
 8002958:	68fb      	ldr	r3, [r7, #12]
 800295a:	683a      	ldr	r2, [r7, #0]
 800295c:	60da      	str	r2, [r3, #12]

  return;
 800295e:	bf00      	nop
} // end of PID_setUi() function
 8002960:	3714      	adds	r7, #20
 8002962:	46bd      	mov	sp, r7
 8002964:	f85d 7b04 	ldr.w	r7, [sp], #4
 8002968:	4770      	bx	lr
 800296a:	bf00      	nop

0800296c <SVGEN_run>:
//! \brief	Implements a SVM that saturates at the level of MaxModulation.
//! \param[in] handle  The space vector generator (SVGEN) handle
//! \param[in] pVab    The pointer to the a/b voltages
//! \param[in] pT      The pointer to the pwm duty cycle time durations
static inline void SVGEN_run(SVGEN_Handle handle,const MATH_vec2 *pVab,MATH_vec3 *pT)//! \Mod By Dl.K
{
 800296c:	b480      	push	{r7}
 800296e:	b08d      	sub	sp, #52	; 0x34
 8002970:	af00      	add	r7, sp, #0
 8002972:	60f8      	str	r0, [r7, #12]
 8002974:	60b9      	str	r1, [r7, #8]
 8002976:	607a      	str	r2, [r7, #4]

  float_t Vmax,Vmin,Vcom;
  float_t Va,Vb,Vc;
  float_t Va_tmp = -(pVab->value[0]*0.5f);
 8002978:	68bb      	ldr	r3, [r7, #8]
 800297a:	edd3 7a00 	vldr	s15, [r3]
 800297e:	eeb6 7a00 	vmov.f32	s14, #96	; 0x60
 8002982:	ee67 7a87 	vmul.f32	s15, s15, s14
 8002986:	eef1 7a67 	vneg.f32	s15, s15
 800298a:	edc7 7a09 	vstr	s15, [r7, #36]	; 0x24
  float_t Vb_tmp = (SVGEN_SQRT3_OVER_2 * pVab->value[1]);
 800298e:	68bb      	ldr	r3, [r7, #8]
 8002990:	edd3 7a01 	vldr	s15, [r3, #4]
 8002994:	ed9f 7a3a 	vldr	s14, [pc, #232]	; 8002a80 <SVGEN_run+0x114>
 8002998:	ee67 7a87 	vmul.f32	s15, s15, s14
 800299c:	edc7 7a08 	vstr	s15, [r7, #32]
  
  Va = pVab->value[0];  //alpha
 80029a0:	68bb      	ldr	r3, [r7, #8]
 80029a2:	681b      	ldr	r3, [r3, #0]
 80029a4:	61fb      	str	r3, [r7, #28]
  Vb = Va_tmp + Vb_tmp; //-0.5*alpha + sqrt(3)/2 * beta;
 80029a6:	ed97 7a09 	vldr	s14, [r7, #36]	; 0x24
 80029aa:	edd7 7a08 	vldr	s15, [r7, #32]
 80029ae:	ee77 7a27 	vadd.f32	s15, s14, s15
 80029b2:	edc7 7a06 	vstr	s15, [r7, #24]
  Vc = Va_tmp - Vb_tmp; //-0.5*alpha - sqrt(3)/2 * beta;
 80029b6:	ed97 7a09 	vldr	s14, [r7, #36]	; 0x24
 80029ba:	edd7 7a08 	vldr	s15, [r7, #32]
 80029be:	ee77 7a67 	vsub.f32	s15, s14, s15
 80029c2:	edc7 7a05 	vstr	s15, [r7, #20]
	
  Vmax=0;
 80029c6:	f04f 0300 	mov.w	r3, #0
 80029ca:	62fb      	str	r3, [r7, #44]	; 0x2c
  Vmin=0;
 80029cc:	f04f 0300 	mov.w	r3, #0
 80029d0:	62bb      	str	r3, [r7, #40]	; 0x28

  // find order Vmin,Vmid,Vmax
  if (Va > Vb)			
 80029d2:	ed97 7a07 	vldr	s14, [r7, #28]
 80029d6:	edd7 7a06 	vldr	s15, [r7, #24]
 80029da:	eeb4 7ae7 	vcmpe.f32	s14, s15
 80029de:	eef1 fa10 	vmrs	APSR_nzcv, fpscr
 80029e2:	dd04      	ble.n	80029ee <SVGEN_run+0x82>
  {
    Vmax = Va;
 80029e4:	69fb      	ldr	r3, [r7, #28]
 80029e6:	62fb      	str	r3, [r7, #44]	; 0x2c
    Vmin = Vb;
 80029e8:	69bb      	ldr	r3, [r7, #24]
 80029ea:	62bb      	str	r3, [r7, #40]	; 0x28
 80029ec:	e003      	b.n	80029f6 <SVGEN_run+0x8a>
  }
  else
  {
    Vmax = Vb;
 80029ee:	69bb      	ldr	r3, [r7, #24]
 80029f0:	62fb      	str	r3, [r7, #44]	; 0x2c
    Vmin = Va;
 80029f2:	69fb      	ldr	r3, [r7, #28]
 80029f4:	62bb      	str	r3, [r7, #40]	; 0x28
  }

  if (Vc > Vmax)
 80029f6:	ed97 7a05 	vldr	s14, [r7, #20]
 80029fa:	edd7 7a0b 	vldr	s15, [r7, #44]	; 0x2c
 80029fe:	eeb4 7ae7 	vcmpe.f32	s14, s15
 8002a02:	eef1 fa10 	vmrs	APSR_nzcv, fpscr
 8002a06:	dd02      	ble.n	8002a0e <SVGEN_run+0xa2>
  {
    Vmax = Vc;
 8002a08:	697b      	ldr	r3, [r7, #20]
 8002a0a:	62fb      	str	r3, [r7, #44]	; 0x2c
 8002a0c:	e00a      	b.n	8002a24 <SVGEN_run+0xb8>
  }
  else if (Vc < Vmin)
 8002a0e:	ed97 7a05 	vldr	s14, [r7, #20]
 8002a12:	edd7 7a0a 	vldr	s15, [r7, #40]	; 0x28
 8002a16:	eeb4 7ae7 	vcmpe.f32	s14, s15
 8002a1a:	eef1 fa10 	vmrs	APSR_nzcv, fpscr
 8002a1e:	d501      	bpl.n	8002a24 <SVGEN_run+0xb8>
  {
    Vmin = Vc;
 8002a20:	697b      	ldr	r3, [r7, #20]
 8002a22:	62bb      	str	r3, [r7, #40]	; 0x28
  }
		
  Vcom = ( (Vmax+Vmin) * (0.5f));
 8002a24:	ed97 7a0b 	vldr	s14, [r7, #44]	; 0x2c
 8002a28:	edd7 7a0a 	vldr	s15, [r7, #40]	; 0x28
 8002a2c:	ee77 7a27 	vadd.f32	s15, s14, s15
 8002a30:	eeb6 7a00 	vmov.f32	s14, #96	; 0x60
 8002a34:	ee67 7a87 	vmul.f32	s15, s15, s14
 8002a38:	edc7 7a04 	vstr	s15, [r7, #16]

  // Subtract common-mode term to achieve SV modulation
  pT->value[0] = (Va - Vcom);
 8002a3c:	ed97 7a07 	vldr	s14, [r7, #28]
 8002a40:	edd7 7a04 	vldr	s15, [r7, #16]
 8002a44:	ee77 7a67 	vsub.f32	s15, s14, s15
 8002a48:	687b      	ldr	r3, [r7, #4]
 8002a4a:	edc3 7a00 	vstr	s15, [r3]
  pT->value[1] = (Vb - Vcom);
 8002a4e:	ed97 7a06 	vldr	s14, [r7, #24]
 8002a52:	edd7 7a04 	vldr	s15, [r7, #16]
 8002a56:	ee77 7a67 	vsub.f32	s15, s14, s15
 8002a5a:	687b      	ldr	r3, [r7, #4]
 8002a5c:	edc3 7a01 	vstr	s15, [r3, #4]
  pT->value[2] = (Vc - Vcom);
 8002a60:	ed97 7a05 	vldr	s14, [r7, #20]
 8002a64:	edd7 7a04 	vldr	s15, [r7, #16]
 8002a68:	ee77 7a67 	vsub.f32	s15, s14, s15
 8002a6c:	687b      	ldr	r3, [r7, #4]
 8002a6e:	edc3 7a02 	vstr	s15, [r3, #8]
  
  return;
 8002a72:	bf00      	nop
} // end of SVGEN_run() function
 8002a74:	3734      	adds	r7, #52	; 0x34
 8002a76:	46bd      	mov	sp, r7
 8002a78:	f85d 7b04 	ldr.w	r7, [sp], #4
 8002a7c:	4770      	bx	lr
 8002a7e:	bf00      	nop
 8002a80:	3f5db3d7 	.word	0x3f5db3d7

08002a84 <SVGEN_setMaxModulation>:

//! \brief     Sets the maximum modulation in the space vector generator module
//! \param[in] handle         The space vector generator (SVGEN) handle
//! \param[in] maxModulation  The maximum modulation
static inline void SVGEN_setMaxModulation(SVGEN_Handle handle,const float_t maxModulation)
{
 8002a84:	b480      	push	{r7}
 8002a86:	b085      	sub	sp, #20
 8002a88:	af00      	add	r7, sp, #0
 8002a8a:	6078      	str	r0, [r7, #4]
 8002a8c:	ed87 0a00 	vstr	s0, [r7]
  SVGEN_Obj *obj = (SVGEN_Obj *)handle;
 8002a90:	687b      	ldr	r3, [r7, #4]
 8002a92:	60bb      	str	r3, [r7, #8]
  float_t maxMod = maxModulation;
 8002a94:	683b      	ldr	r3, [r7, #0]
 8002a96:	60fb      	str	r3, [r7, #12]

  if(maxMod > SVGEN_4_OVER_3)
 8002a98:	edd7 7a03 	vldr	s15, [r7, #12]
 8002a9c:	ed9f 7a0e 	vldr	s14, [pc, #56]	; 8002ad8 <SVGEN_setMaxModulation+0x54>
 8002aa0:	eef4 7ac7 	vcmpe.f32	s15, s14
 8002aa4:	eef1 fa10 	vmrs	APSR_nzcv, fpscr
 8002aa8:	dd02      	ble.n	8002ab0 <SVGEN_setMaxModulation+0x2c>
      maxMod = SVGEN_4_OVER_3;
 8002aaa:	4b0c      	ldr	r3, [pc, #48]	; (8002adc <SVGEN_setMaxModulation+0x58>)
 8002aac:	60fb      	str	r3, [r7, #12]
 8002aae:	e009      	b.n	8002ac4 <SVGEN_setMaxModulation+0x40>
  else if(maxMod < (0.0f))
 8002ab0:	edd7 7a03 	vldr	s15, [r7, #12]
 8002ab4:	eef5 7ac0 	vcmpe.f32	s15, #0.0
 8002ab8:	eef1 fa10 	vmrs	APSR_nzcv, fpscr
 8002abc:	d502      	bpl.n	8002ac4 <SVGEN_setMaxModulation+0x40>
      maxMod = (0.0f);
 8002abe:	f04f 0300 	mov.w	r3, #0
 8002ac2:	60fb      	str	r3, [r7, #12]

  obj->maxModulation = maxMod;
 8002ac4:	68bb      	ldr	r3, [r7, #8]
 8002ac6:	68fa      	ldr	r2, [r7, #12]
 8002ac8:	601a      	str	r2, [r3, #0]

  return;
 8002aca:	bf00      	nop
} // end of SVGEN_setMaxModulation() function
 8002acc:	3714      	adds	r7, #20
 8002ace:	46bd      	mov	sp, r7
 8002ad0:	f85d 7b04 	ldr.w	r7, [sp], #4
 8002ad4:	4770      	bx	lr
 8002ad6:	bf00      	nop
 8002ad8:	3faaaaab 	.word	0x3faaaaab
 8002adc:	3faaaaab 	.word	0x3faaaaab

08002ae0 <TRAJ_setIntValue>:

//! \brief     Sets the intermediate value for the trajectory
//! \param[in] handle    The trajectory (TRAJ) handle
//! \param[in] intValue  The intermediate value
static inline void TRAJ_setIntValue(TRAJ_Handle handle,const float_t intValue)
{
 8002ae0:	b480      	push	{r7}
 8002ae2:	b085      	sub	sp, #20
 8002ae4:	af00      	add	r7, sp, #0
 8002ae6:	6078      	str	r0, [r7, #4]
 8002ae8:	ed87 0a00 	vstr	s0, [r7]
  TRAJ_Obj *obj = (TRAJ_Obj *)handle;
 8002aec:	687b      	ldr	r3, [r7, #4]
 8002aee:	60fb      	str	r3, [r7, #12]

  obj->intValue = intValue;
 8002af0:	68fb      	ldr	r3, [r7, #12]
 8002af2:	683a      	ldr	r2, [r7, #0]
 8002af4:	605a      	str	r2, [r3, #4]

  return;
 8002af6:	bf00      	nop
} // end of TRAJ_setIntValue() function
 8002af8:	3714      	adds	r7, #20
 8002afa:	46bd      	mov	sp, r7
 8002afc:	f85d 7b04 	ldr.w	r7, [sp], #4
 8002b00:	4770      	bx	lr
 8002b02:	bf00      	nop

08002b04 <TRAJ_setMaxDelta>:

//! \brief     Sets the maximum delta value for the trajectory
//! \param[in] handle    The trajectory (TRAJ) handle
//! \param[in] maxDelta  The maximum delta value
static inline void TRAJ_setMaxDelta(TRAJ_Handle handle,const float_t maxDelta)
{
 8002b04:	b480      	push	{r7}
 8002b06:	b085      	sub	sp, #20
 8002b08:	af00      	add	r7, sp, #0
 8002b0a:	6078      	str	r0, [r7, #4]
 8002b0c:	ed87 0a00 	vstr	s0, [r7]
  TRAJ_Obj *obj = (TRAJ_Obj *)handle;
 8002b10:	687b      	ldr	r3, [r7, #4]
 8002b12:	60fb      	str	r3, [r7, #12]

  obj->maxDelta = maxDelta;
 8002b14:	68fb      	ldr	r3, [r7, #12]
 8002b16:	683a      	ldr	r2, [r7, #0]
 8002b18:	611a      	str	r2, [r3, #16]

  return;
 8002b1a:	bf00      	nop
} // end of TRAJ_setMaxDelta() function
 8002b1c:	3714      	adds	r7, #20
 8002b1e:	46bd      	mov	sp, r7
 8002b20:	f85d 7b04 	ldr.w	r7, [sp], #4
 8002b24:	4770      	bx	lr
 8002b26:	bf00      	nop

08002b28 <TRAJ_setMaxValue>:

//! \brief     Sets the maximum value for the trajectory
//! \param[in] handle    The trajectory (TRAJ) handle
//! \param[in] maxValue  The maximum value
static inline void TRAJ_setMaxValue(TRAJ_Handle handle,const float_t maxValue)
{
 8002b28:	b480      	push	{r7}
 8002b2a:	b085      	sub	sp, #20
 8002b2c:	af00      	add	r7, sp, #0
 8002b2e:	6078      	str	r0, [r7, #4]
 8002b30:	ed87 0a00 	vstr	s0, [r7]
  TRAJ_Obj *obj = (TRAJ_Obj *)handle;
 8002b34:	687b      	ldr	r3, [r7, #4]
 8002b36:	60fb      	str	r3, [r7, #12]

  obj->maxValue = maxValue;
 8002b38:	68fb      	ldr	r3, [r7, #12]
 8002b3a:	683a      	ldr	r2, [r7, #0]
 8002b3c:	60da      	str	r2, [r3, #12]

  return;
 8002b3e:	bf00      	nop
} // end of TRAJ_setMaxValue() function
 8002b40:	3714      	adds	r7, #20
 8002b42:	46bd      	mov	sp, r7
 8002b44:	f85d 7b04 	ldr.w	r7, [sp], #4
 8002b48:	4770      	bx	lr
 8002b4a:	bf00      	nop

08002b4c <TRAJ_setMinValue>:

//! \brief     Sets the minimum value for the trajectory
//! \param[in] handle    The trajectory (TRAJ) handle
//! \param[in] minValue  The minimum value
static inline void TRAJ_setMinValue(TRAJ_Handle handle,const float_t minValue)
{
 8002b4c:	b480      	push	{r7}
 8002b4e:	b085      	sub	sp, #20
 8002b50:	af00      	add	r7, sp, #0
 8002b52:	6078      	str	r0, [r7, #4]
 8002b54:	ed87 0a00 	vstr	s0, [r7]
  TRAJ_Obj *obj = (TRAJ_Obj *)handle;
 8002b58:	687b      	ldr	r3, [r7, #4]
 8002b5a:	60fb      	str	r3, [r7, #12]

  obj->minValue = minValue;
 8002b5c:	68fb      	ldr	r3, [r7, #12]
 8002b5e:	683a      	ldr	r2, [r7, #0]
 8002b60:	609a      	str	r2, [r3, #8]

  return;
 8002b62:	bf00      	nop
} // end of TRAJ_setMinValue() function
 8002b64:	3714      	adds	r7, #20
 8002b66:	46bd      	mov	sp, r7
 8002b68:	f85d 7b04 	ldr.w	r7, [sp], #4
 8002b6c:	4770      	bx	lr
 8002b6e:	bf00      	nop

08002b70 <TRAJ_setTargetValue>:

//! \brief     Sets the target value for the trajectory
//! \param[in] handle       The trajectory (TRAJ) handle
//! \param[in] targetValue  The target value
static inline void TRAJ_setTargetValue(TRAJ_Handle handle,const float_t targetValue)
{
 8002b70:	b480      	push	{r7}
 8002b72:	b085      	sub	sp, #20
 8002b74:	af00      	add	r7, sp, #0
 8002b76:	6078      	str	r0, [r7, #4]
 8002b78:	ed87 0a00 	vstr	s0, [r7]
  TRAJ_Obj *obj = (TRAJ_Obj *)handle;
 8002b7c:	687b      	ldr	r3, [r7, #4]
 8002b7e:	60fb      	str	r3, [r7, #12]

  obj->targetValue = targetValue;
 8002b80:	68fb      	ldr	r3, [r7, #12]
 8002b82:	683a      	ldr	r2, [r7, #0]
 8002b84:	601a      	str	r2, [r3, #0]

  return;
 8002b86:	bf00      	nop
} // end of TRAJ_setTargetValue() function
 8002b88:	3714      	adds	r7, #20
 8002b8a:	46bd      	mov	sp, r7
 8002b8c:	f85d 7b04 	ldr.w	r7, [sp], #4
 8002b90:	4770      	bx	lr
 8002b92:	bf00      	nop

08002b94 <RMP_CNTL_SetRampDelayMax>:
// the functions

extern RMPCNTL_Handle RMP_CNTL_Init(void *pMemory, const size_t numBytes);//! \Mod By Dl.K

static inline void RMP_CNTL_SetRampDelayMax(RMPCNTL_Handle handle, const uint_least32_t value)//! \Mod By Dl.K
{
 8002b94:	b480      	push	{r7}
 8002b96:	b085      	sub	sp, #20
 8002b98:	af00      	add	r7, sp, #0
 8002b9a:	6078      	str	r0, [r7, #4]
 8002b9c:	6039      	str	r1, [r7, #0]
	RMPCNTL_Obj *obj = (RMPCNTL_Obj *)handle;
 8002b9e:	687b      	ldr	r3, [r7, #4]
 8002ba0:	60fb      	str	r3, [r7, #12]

	obj->RampDelayMax = value;
 8002ba2:	68fb      	ldr	r3, [r7, #12]
 8002ba4:	683a      	ldr	r2, [r7, #0]
 8002ba6:	605a      	str	r2, [r3, #4]

	return;
 8002ba8:	bf00      	nop
}
 8002baa:	3714      	adds	r7, #20
 8002bac:	46bd      	mov	sp, r7
 8002bae:	f85d 7b04 	ldr.w	r7, [sp], #4
 8002bb2:	4770      	bx	lr

08002bb4 <RMP_CNTL_SetTargetValue>:

static inline void RMP_CNTL_SetTargetValue(RMPCNTL_Handle handle, const float_t target_value)//! \Mod By Dl.K
{
 8002bb4:	b480      	push	{r7}
 8002bb6:	b085      	sub	sp, #20
 8002bb8:	af00      	add	r7, sp, #0
 8002bba:	6078      	str	r0, [r7, #4]
 8002bbc:	ed87 0a00 	vstr	s0, [r7]
	RMPCNTL_Obj *obj = (RMPCNTL_Obj *)handle;
 8002bc0:	687b      	ldr	r3, [r7, #4]
 8002bc2:	60fb      	str	r3, [r7, #12]

	obj->TargetValue = target_value;
 8002bc4:	68fb      	ldr	r3, [r7, #12]
 8002bc6:	683a      	ldr	r2, [r7, #0]
 8002bc8:	601a      	str	r2, [r3, #0]

	return;
 8002bca:	bf00      	nop
}
 8002bcc:	3714      	adds	r7, #20
 8002bce:	46bd      	mov	sp, r7
 8002bd0:	f85d 7b04 	ldr.w	r7, [sp], #4
 8002bd4:	4770      	bx	lr
 8002bd6:	bf00      	nop

08002bd8 <RMP_CNTL_GetFreq>:

static inline float_t RMP_CNTL_GetFreq(RMPCNTL_Handle handle)//! \Mod By Dl.K
{
 8002bd8:	b480      	push	{r7}
 8002bda:	b085      	sub	sp, #20
 8002bdc:	af00      	add	r7, sp, #0
 8002bde:	6078      	str	r0, [r7, #4]
	RMPCNTL_Obj *obj = (RMPCNTL_Obj *)handle;
 8002be0:	687b      	ldr	r3, [r7, #4]
 8002be2:	60fb      	str	r3, [r7, #12]

	return (obj->SetpointValue);
 8002be4:	68fb      	ldr	r3, [r7, #12]
 8002be6:	695b      	ldr	r3, [r3, #20]
 8002be8:	ee07 3a90 	vmov	s15, r3
}
 8002bec:	eeb0 0a67 	vmov.f32	s0, s15
 8002bf0:	3714      	adds	r7, #20
 8002bf2:	46bd      	mov	sp, r7
 8002bf4:	f85d 7b04 	ldr.w	r7, [sp], #4
 8002bf8:	4770      	bx	lr
 8002bfa:	bf00      	nop

08002bfc <RMP_CNTL_Run>:
	
	return ;
}

static inline void RMP_CNTL_Run(RMPCNTL_Handle handle)//! \Mod By Dl.K
{
 8002bfc:	b580      	push	{r7, lr}
 8002bfe:	b084      	sub	sp, #16
 8002c00:	af00      	add	r7, sp, #0
 8002c02:	6078      	str	r0, [r7, #4]
	RMPCNTL_Obj *obj = (RMPCNTL_Obj *)handle;
 8002c04:	687b      	ldr	r3, [r7, #4]
 8002c06:	60fb      	str	r3, [r7, #12]

	float_t tmp;

	tmp = obj->TargetValue - obj->SetpointValue;
 8002c08:	68fb      	ldr	r3, [r7, #12]
 8002c0a:	ed93 7a00 	vldr	s14, [r3]
 8002c0e:	68fb      	ldr	r3, [r7, #12]
 8002c10:	edd3 7a05 	vldr	s15, [r3, #20]
 8002c14:	ee77 7a67 	vsub.f32	s15, s14, s15
 8002c18:	edc7 7a02 	vstr	s15, [r7, #8]

	if (MATH_abs(tmp) > (0.0000305f))
 8002c1c:	ed97 0a02 	vldr	s0, [r7, #8]
 8002c20:	f7ff fbb0 	bl	8002384 <MATH_abs>
 8002c24:	eeb0 7a40 	vmov.f32	s14, s0
 8002c28:	eddf 7a2f 	vldr	s15, [pc, #188]	; 8002ce8 <RMP_CNTL_Run+0xec>
 8002c2c:	eeb4 7ae7 	vcmpe.f32	s14, s15
 8002c30:	eef1 fa10 	vmrs	APSR_nzcv, fpscr
 8002c34:	dd4f      	ble.n	8002cd6 <RMP_CNTL_Run+0xda>
	{
		obj->RampDelayCount += 1;
 8002c36:	68fb      	ldr	r3, [r7, #12]
 8002c38:	691b      	ldr	r3, [r3, #16]
 8002c3a:	1c5a      	adds	r2, r3, #1
 8002c3c:	68fb      	ldr	r3, [r7, #12]
 8002c3e:	611a      	str	r2, [r3, #16]
		if (obj->RampDelayCount >= obj->RampDelayMax)
 8002c40:	68fb      	ldr	r3, [r7, #12]
 8002c42:	691a      	ldr	r2, [r3, #16]
 8002c44:	68fb      	ldr	r3, [r7, #12]
 8002c46:	685b      	ldr	r3, [r3, #4]
 8002c48:	429a      	cmp	r2, r3
 8002c4a:	d348      	bcc.n	8002cde <RMP_CNTL_Run+0xe2>
		{
			if (obj->TargetValue >= obj->SetpointValue)
 8002c4c:	68fb      	ldr	r3, [r7, #12]
 8002c4e:	ed93 7a00 	vldr	s14, [r3]
 8002c52:	68fb      	ldr	r3, [r7, #12]
 8002c54:	edd3 7a05 	vldr	s15, [r3, #20]
 8002c58:	eeb4 7ae7 	vcmpe.f32	s14, s15
 8002c5c:	eef1 fa10 	vmrs	APSR_nzcv, fpscr
 8002c60:	db1c      	blt.n	8002c9c <RMP_CNTL_Run+0xa0>
			{
				obj->SetpointValue += (0.0000305f);        // 0.0000305 is resolution(1/2^15) of Q15
 8002c62:	68fb      	ldr	r3, [r7, #12]
 8002c64:	edd3 7a05 	vldr	s15, [r3, #20]
 8002c68:	ed9f 7a1f 	vldr	s14, [pc, #124]	; 8002ce8 <RMP_CNTL_Run+0xec>
 8002c6c:	ee77 7a87 	vadd.f32	s15, s15, s14
 8002c70:	68fb      	ldr	r3, [r7, #12]
 8002c72:	edc3 7a05 	vstr	s15, [r3, #20]
				if (obj->SetpointValue > obj->RampHighLimit)
 8002c76:	68fb      	ldr	r3, [r7, #12]
 8002c78:	ed93 7a05 	vldr	s14, [r3, #20]
 8002c7c:	68fb      	ldr	r3, [r7, #12]
 8002c7e:	edd3 7a03 	vldr	s15, [r3, #12]
 8002c82:	eeb4 7ae7 	vcmpe.f32	s14, s15
 8002c86:	eef1 fa10 	vmrs	APSR_nzcv, fpscr
 8002c8a:	dd03      	ble.n	8002c94 <RMP_CNTL_Run+0x98>
					obj->SetpointValue = obj->RampHighLimit;
 8002c8c:	68fb      	ldr	r3, [r7, #12]
 8002c8e:	68da      	ldr	r2, [r3, #12]
 8002c90:	68fb      	ldr	r3, [r7, #12]
 8002c92:	615a      	str	r2, [r3, #20]
				obj->RampDelayCount = 0;
 8002c94:	68fb      	ldr	r3, [r7, #12]
 8002c96:	2200      	movs	r2, #0
 8002c98:	611a      	str	r2, [r3, #16]
 8002c9a:	e020      	b.n	8002cde <RMP_CNTL_Run+0xe2>
			}
			else
			{
				obj->SetpointValue -= (0.0000305f);        // 0.0000305 is resolution of Q15
 8002c9c:	68fb      	ldr	r3, [r7, #12]
 8002c9e:	edd3 7a05 	vldr	s15, [r3, #20]
 8002ca2:	ed9f 7a11 	vldr	s14, [pc, #68]	; 8002ce8 <RMP_CNTL_Run+0xec>
 8002ca6:	ee77 7ac7 	vsub.f32	s15, s15, s14
 8002caa:	68fb      	ldr	r3, [r7, #12]
 8002cac:	edc3 7a05 	vstr	s15, [r3, #20]
				if (obj->SetpointValue < obj->RampLowLimit)
 8002cb0:	68fb      	ldr	r3, [r7, #12]
 8002cb2:	ed93 7a05 	vldr	s14, [r3, #20]
 8002cb6:	68fb      	ldr	r3, [r7, #12]
 8002cb8:	edd3 7a02 	vldr	s15, [r3, #8]
 8002cbc:	eeb4 7ae7 	vcmpe.f32	s14, s15
 8002cc0:	eef1 fa10 	vmrs	APSR_nzcv, fpscr
 8002cc4:	d503      	bpl.n	8002cce <RMP_CNTL_Run+0xd2>
					obj->SetpointValue = obj->RampLowLimit;
 8002cc6:	68fb      	ldr	r3, [r7, #12]
 8002cc8:	689a      	ldr	r2, [r3, #8]
 8002cca:	68fb      	ldr	r3, [r7, #12]
 8002ccc:	615a      	str	r2, [r3, #20]
				obj->RampDelayCount = 0;
 8002cce:	68fb      	ldr	r3, [r7, #12]
 8002cd0:	2200      	movs	r2, #0
 8002cd2:	611a      	str	r2, [r3, #16]
			}
		}
	}
	else  obj->EqualFlag = 0x7FFFFFFF;
	return;
 8002cd4:	e004      	b.n	8002ce0 <RMP_CNTL_Run+0xe4>
					obj->SetpointValue = obj->RampLowLimit;
				obj->RampDelayCount = 0;
			}
		}
	}
	else  obj->EqualFlag = 0x7FFFFFFF;
 8002cd6:	68fb      	ldr	r3, [r7, #12]
 8002cd8:	f06f 4200 	mvn.w	r2, #2147483648	; 0x80000000
 8002cdc:	619a      	str	r2, [r3, #24]
	return;
 8002cde:	bf00      	nop
}
 8002ce0:	3710      	adds	r7, #16
 8002ce2:	46bd      	mov	sp, r7
 8002ce4:	bd80      	pop	{r7, pc}
 8002ce6:	bf00      	nop
 8002ce8:	37ffda40 	.word	0x37ffda40

08002cec <RAMPGEN_GetAngleOut>:
// the functions

extern RAMPGEN_Handle RAMPGEN_Init(void *pMemory, const size_t numBytes);

static inline float_t RAMPGEN_GetAngleOut(RAMPGEN_Handle handle)//! \Mod By Dl.K
{
 8002cec:	b480      	push	{r7}
 8002cee:	b085      	sub	sp, #20
 8002cf0:	af00      	add	r7, sp, #0
 8002cf2:	6078      	str	r0, [r7, #4]
	RAMPGEN_Obj *obj = (RAMPGEN_Obj *)handle;
 8002cf4:	687b      	ldr	r3, [r7, #4]
 8002cf6:	60fb      	str	r3, [r7, #12]

	return (obj->Out);
 8002cf8:	68fb      	ldr	r3, [r7, #12]
 8002cfa:	691b      	ldr	r3, [r3, #16]
 8002cfc:	ee07 3a90 	vmov	s15, r3
}
 8002d00:	eeb0 0a67 	vmov.f32	s0, s15
 8002d04:	3714      	adds	r7, #20
 8002d06:	46bd      	mov	sp, r7
 8002d08:	f85d 7b04 	ldr.w	r7, [sp], #4
 8002d0c:	4770      	bx	lr
 8002d0e:	bf00      	nop

08002d10 <RAMPGEN_SetFreq>:

static inline void RAMPGEN_SetFreq(RAMPGEN_Handle handle, const float_t freq)//! \Mod By Dl.K
{
 8002d10:	b480      	push	{r7}
 8002d12:	b085      	sub	sp, #20
 8002d14:	af00      	add	r7, sp, #0
 8002d16:	6078      	str	r0, [r7, #4]
 8002d18:	ed87 0a00 	vstr	s0, [r7]
	RAMPGEN_Obj *obj = (RAMPGEN_Obj *)handle;
 8002d1c:	687b      	ldr	r3, [r7, #4]
 8002d1e:	60fb      	str	r3, [r7, #12]

	obj->Freq = freq;
 8002d20:	68fb      	ldr	r3, [r7, #12]
 8002d22:	683a      	ldr	r2, [r7, #0]
 8002d24:	601a      	str	r2, [r3, #0]

	return;
 8002d26:	bf00      	nop
}
 8002d28:	3714      	adds	r7, #20
 8002d2a:	46bd      	mov	sp, r7
 8002d2c:	f85d 7b04 	ldr.w	r7, [sp], #4
 8002d30:	4770      	bx	lr
 8002d32:	bf00      	nop

08002d34 <RAMPGEN_SetStepAngleMax>:

static inline void RAMPGEN_SetStepAngleMax(RAMPGEN_Handle handle, const float_t step_angle_max)//! \Mod By Dl.K
{
 8002d34:	b480      	push	{r7}
 8002d36:	b085      	sub	sp, #20
 8002d38:	af00      	add	r7, sp, #0
 8002d3a:	6078      	str	r0, [r7, #4]
 8002d3c:	ed87 0a00 	vstr	s0, [r7]
	RAMPGEN_Obj *obj = (RAMPGEN_Obj *)handle;
 8002d40:	687b      	ldr	r3, [r7, #4]
 8002d42:	60fb      	str	r3, [r7, #12]

	obj->StepAngleMax = step_angle_max;
 8002d44:	68fb      	ldr	r3, [r7, #12]
 8002d46:	683a      	ldr	r2, [r7, #0]
 8002d48:	605a      	str	r2, [r3, #4]

	return;
 8002d4a:	bf00      	nop
}
 8002d4c:	3714      	adds	r7, #20
 8002d4e:	46bd      	mov	sp, r7
 8002d50:	f85d 7b04 	ldr.w	r7, [sp], #4
 8002d54:	4770      	bx	lr
 8002d56:	bf00      	nop

08002d58 <RAMPGEN_SetAngleOffset>:

static inline void RAMPGEN_SetAngleOffset(RAMPGEN_Handle handle, const float_t offset)//! \Mod By Dl.K
{
 8002d58:	b480      	push	{r7}
 8002d5a:	b085      	sub	sp, #20
 8002d5c:	af00      	add	r7, sp, #0
 8002d5e:	6078      	str	r0, [r7, #4]
 8002d60:	ed87 0a00 	vstr	s0, [r7]
	RAMPGEN_Obj *obj = (RAMPGEN_Obj *)handle;
 8002d64:	687b      	ldr	r3, [r7, #4]
 8002d66:	60fb      	str	r3, [r7, #12]

	obj->Offset = offset;
 8002d68:	68fb      	ldr	r3, [r7, #12]
 8002d6a:	683a      	ldr	r2, [r7, #0]
 8002d6c:	615a      	str	r2, [r3, #20]

	return;
 8002d6e:	bf00      	nop
}
 8002d70:	3714      	adds	r7, #20
 8002d72:	46bd      	mov	sp, r7
 8002d74:	f85d 7b04 	ldr.w	r7, [sp], #4
 8002d78:	4770      	bx	lr
 8002d7a:	bf00      	nop

08002d7c <RAMPGEN_Run>:

static inline void RAMPGEN_Run(RAMPGEN_Handle handle)//! \Mod By Dl.K
{
 8002d7c:	b480      	push	{r7}
 8002d7e:	b085      	sub	sp, #20
 8002d80:	af00      	add	r7, sp, #0
 8002d82:	6078      	str	r0, [r7, #4]
	RAMPGEN_Obj *obj = (RAMPGEN_Obj *)handle;
 8002d84:	687b      	ldr	r3, [r7, #4]
 8002d86:	60fb      	str	r3, [r7, #12]

	// Compute the angle rate
	obj->Angle += (obj->StepAngleMax * obj->Freq);
 8002d88:	68fb      	ldr	r3, [r7, #12]
 8002d8a:	ed93 7a02 	vldr	s14, [r3, #8]
 8002d8e:	68fb      	ldr	r3, [r7, #12]
 8002d90:	edd3 6a01 	vldr	s13, [r3, #4]
 8002d94:	68fb      	ldr	r3, [r7, #12]
 8002d96:	edd3 7a00 	vldr	s15, [r3]
 8002d9a:	ee66 7aa7 	vmul.f32	s15, s13, s15
 8002d9e:	ee77 7a27 	vadd.f32	s15, s14, s15
 8002da2:	68fb      	ldr	r3, [r7, #12]
 8002da4:	edc3 7a02 	vstr	s15, [r3, #8]

	// Saturate the angle rate within (-1,1)        
	if (obj->Angle>(1.0f))
 8002da8:	68fb      	ldr	r3, [r7, #12]
 8002daa:	edd3 7a02 	vldr	s15, [r3, #8]
 8002dae:	eeb7 7a00 	vmov.f32	s14, #112	; 0x70
 8002db2:	eef4 7ac7 	vcmpe.f32	s15, s14
 8002db6:	eef1 fa10 	vmrs	APSR_nzcv, fpscr
 8002dba:	dd0a      	ble.n	8002dd2 <RAMPGEN_Run+0x56>
		obj->Angle -= (1.0f);
 8002dbc:	68fb      	ldr	r3, [r7, #12]
 8002dbe:	edd3 7a02 	vldr	s15, [r3, #8]
 8002dc2:	eeb7 7a00 	vmov.f32	s14, #112	; 0x70
 8002dc6:	ee77 7ac7 	vsub.f32	s15, s15, s14
 8002dca:	68fb      	ldr	r3, [r7, #12]
 8002dcc:	edc3 7a02 	vstr	s15, [r3, #8]
 8002dd0:	e013      	b.n	8002dfa <RAMPGEN_Run+0x7e>
	else if (obj->Angle<(-1.0f))
 8002dd2:	68fb      	ldr	r3, [r7, #12]
 8002dd4:	edd3 7a02 	vldr	s15, [r3, #8]
 8002dd8:	eebf 7a00 	vmov.f32	s14, #240	; 0xf0
 8002ddc:	eef4 7ac7 	vcmpe.f32	s15, s14
 8002de0:	eef1 fa10 	vmrs	APSR_nzcv, fpscr
 8002de4:	d509      	bpl.n	8002dfa <RAMPGEN_Run+0x7e>
		obj->Angle += (1.0f);
 8002de6:	68fb      	ldr	r3, [r7, #12]
 8002de8:	edd3 7a02 	vldr	s15, [r3, #8]
 8002dec:	eeb7 7a00 	vmov.f32	s14, #112	; 0x70
 8002df0:	ee77 7a87 	vadd.f32	s15, s15, s14
 8002df4:	68fb      	ldr	r3, [r7, #12]
 8002df6:	edc3 7a02 	vstr	s15, [r3, #8]

	// Compute the ramp output
	obj->Out = (obj->Angle * obj->Gain) + obj->Offset;
 8002dfa:	68fb      	ldr	r3, [r7, #12]
 8002dfc:	ed93 7a02 	vldr	s14, [r3, #8]
 8002e00:	68fb      	ldr	r3, [r7, #12]
 8002e02:	edd3 7a03 	vldr	s15, [r3, #12]
 8002e06:	ee27 7a27 	vmul.f32	s14, s14, s15
 8002e0a:	68fb      	ldr	r3, [r7, #12]
 8002e0c:	edd3 7a05 	vldr	s15, [r3, #20]
 8002e10:	ee77 7a27 	vadd.f32	s15, s14, s15
 8002e14:	68fb      	ldr	r3, [r7, #12]
 8002e16:	edc3 7a04 	vstr	s15, [r3, #16]

	// Saturate the ramp output within (-1,1)     
	if (obj->Out>(1.0f))
 8002e1a:	68fb      	ldr	r3, [r7, #12]
 8002e1c:	edd3 7a04 	vldr	s15, [r3, #16]
 8002e20:	eeb7 7a00 	vmov.f32	s14, #112	; 0x70
 8002e24:	eef4 7ac7 	vcmpe.f32	s15, s14
 8002e28:	eef1 fa10 	vmrs	APSR_nzcv, fpscr
 8002e2c:	dd0a      	ble.n	8002e44 <RAMPGEN_Run+0xc8>
		obj->Out -= (1.0f);
 8002e2e:	68fb      	ldr	r3, [r7, #12]
 8002e30:	edd3 7a04 	vldr	s15, [r3, #16]
 8002e34:	eeb7 7a00 	vmov.f32	s14, #112	; 0x70
 8002e38:	ee77 7ac7 	vsub.f32	s15, s15, s14
 8002e3c:	68fb      	ldr	r3, [r7, #12]
 8002e3e:	edc3 7a04 	vstr	s15, [r3, #16]
 8002e42:	e014      	b.n	8002e6e <RAMPGEN_Run+0xf2>
	else if (obj->Out<(-1.0f))
 8002e44:	68fb      	ldr	r3, [r7, #12]
 8002e46:	edd3 7a04 	vldr	s15, [r3, #16]
 8002e4a:	eebf 7a00 	vmov.f32	s14, #240	; 0xf0
 8002e4e:	eef4 7ac7 	vcmpe.f32	s15, s14
 8002e52:	eef1 fa10 	vmrs	APSR_nzcv, fpscr
 8002e56:	d400      	bmi.n	8002e5a <RAMPGEN_Run+0xde>
		obj->Out += (1.0f);

	return;
 8002e58:	e00a      	b.n	8002e70 <RAMPGEN_Run+0xf4>

	// Saturate the ramp output within (-1,1)     
	if (obj->Out>(1.0f))
		obj->Out -= (1.0f);
	else if (obj->Out<(-1.0f))
		obj->Out += (1.0f);
 8002e5a:	68fb      	ldr	r3, [r7, #12]
 8002e5c:	edd3 7a04 	vldr	s15, [r3, #16]
 8002e60:	eeb7 7a00 	vmov.f32	s14, #112	; 0x70
 8002e64:	ee77 7a87 	vadd.f32	s15, s15, s14
 8002e68:	68fb      	ldr	r3, [r7, #12]
 8002e6a:	edc3 7a04 	vstr	s15, [r3, #16]

	return;
 8002e6e:	bf00      	nop
}
 8002e70:	3714      	adds	r7, #20
 8002e72:	46bd      	mov	sp, r7
 8002e74:	f85d 7b04 	ldr.w	r7, [sp], #4
 8002e78:	4770      	bx	lr
 8002e7a:	bf00      	nop

08002e7c <INITPOSDET_GetInitPosAngle>:
// the functions

extern INITPOSDET_Handle INITPOSDET_Init(void *pMemory, const size_t numBytes);//! \Mod By Dl.K

static inline float_t INITPOSDET_GetInitPosAngle(INITPOSDET_Handle handle)//! \Mod By Dl.K
{
 8002e7c:	b480      	push	{r7}
 8002e7e:	b085      	sub	sp, #20
 8002e80:	af00      	add	r7, sp, #0
 8002e82:	6078      	str	r0, [r7, #4]
	INITPOSDET_Obj *obj = (INITPOSDET_Obj *)handle;
 8002e84:	687b      	ldr	r3, [r7, #4]
 8002e86:	60fb      	str	r3, [r7, #12]

	return (obj->InitPosAngle);
 8002e88:	68fb      	ldr	r3, [r7, #12]
 8002e8a:	685b      	ldr	r3, [r3, #4]
 8002e8c:	ee07 3a90 	vmov	s15, r3
}
 8002e90:	eeb0 0a67 	vmov.f32	s0, s15
 8002e94:	3714      	adds	r7, #20
 8002e96:	46bd      	mov	sp, r7
 8002e98:	f85d 7b04 	ldr.w	r7, [sp], #4
 8002e9c:	4770      	bx	lr
 8002e9e:	bf00      	nop

08002ea0 <INITPOSDET_GetVolVecAngleFlag>:

static inline uint16_t INITPOSDET_GetVolVecAngleFlag(INITPOSDET_Handle handle)//! \Mod By Dl.K
{
 8002ea0:	b480      	push	{r7}
 8002ea2:	b085      	sub	sp, #20
 8002ea4:	af00      	add	r7, sp, #0
 8002ea6:	6078      	str	r0, [r7, #4]
	INITPOSDET_Obj *obj = (INITPOSDET_Obj *)handle;
 8002ea8:	687b      	ldr	r3, [r7, #4]
 8002eaa:	60fb      	str	r3, [r7, #12]

	return (obj->VolVecAngleFlag);
 8002eac:	68fb      	ldr	r3, [r7, #12]
 8002eae:	899b      	ldrh	r3, [r3, #12]
}
 8002eb0:	4618      	mov	r0, r3
 8002eb2:	3714      	adds	r7, #20
 8002eb4:	46bd      	mov	sp, r7
 8002eb6:	f85d 7b04 	ldr.w	r7, [sp], #4
 8002eba:	4770      	bx	lr

08002ebc <INITPOSDET_GetVolVecAngle>:

static inline float_t INITPOSDET_GetVolVecAngle(INITPOSDET_Handle handle)//! \Mod By Dl.K
{
 8002ebc:	b480      	push	{r7}
 8002ebe:	b085      	sub	sp, #20
 8002ec0:	af00      	add	r7, sp, #0
 8002ec2:	6078      	str	r0, [r7, #4]
	INITPOSDET_Obj *obj = (INITPOSDET_Obj *)handle;
 8002ec4:	687b      	ldr	r3, [r7, #4]
 8002ec6:	60fb      	str	r3, [r7, #12]

	return (obj->VolVecAngle);
 8002ec8:	68fb      	ldr	r3, [r7, #12]
 8002eca:	691b      	ldr	r3, [r3, #16]
 8002ecc:	ee07 3a90 	vmov	s15, r3
}
 8002ed0:	eeb0 0a67 	vmov.f32	s0, s15
 8002ed4:	3714      	adds	r7, #20
 8002ed6:	46bd      	mov	sp, r7
 8002ed8:	f85d 7b04 	ldr.w	r7, [sp], #4
 8002edc:	4770      	bx	lr
 8002ede:	bf00      	nop

08002ee0 <INITPOSDET_GetIdSampAngle>:

static inline float_t INITPOSDET_GetIdSampAngle(INITPOSDET_Handle handle)//! \Mod By Dl.K
{
 8002ee0:	b480      	push	{r7}
 8002ee2:	b085      	sub	sp, #20
 8002ee4:	af00      	add	r7, sp, #0
 8002ee6:	6078      	str	r0, [r7, #4]
	INITPOSDET_Obj *obj = (INITPOSDET_Obj *)handle;
 8002ee8:	687b      	ldr	r3, [r7, #4]
 8002eea:	60fb      	str	r3, [r7, #12]

	return (obj->IdSampAngle);
 8002eec:	68fb      	ldr	r3, [r7, #12]
 8002eee:	69db      	ldr	r3, [r3, #28]
 8002ef0:	ee07 3a90 	vmov	s15, r3
}
 8002ef4:	eeb0 0a67 	vmov.f32	s0, s15
 8002ef8:	3714      	adds	r7, #20
 8002efa:	46bd      	mov	sp, r7
 8002efc:	f85d 7b04 	ldr.w	r7, [sp], #4
 8002f00:	4770      	bx	lr
 8002f02:	bf00      	nop

08002f04 <INITPOSDET_GetIdSampAngleFlag>:

static inline uint16_t INITPOSDET_GetIdSampAngleFlag(INITPOSDET_Handle handle)//! \Mod By Dl.K
{
 8002f04:	b480      	push	{r7}
 8002f06:	b085      	sub	sp, #20
 8002f08:	af00      	add	r7, sp, #0
 8002f0a:	6078      	str	r0, [r7, #4]
	INITPOSDET_Obj *obj = (INITPOSDET_Obj *)handle;
 8002f0c:	687b      	ldr	r3, [r7, #4]
 8002f0e:	60fb      	str	r3, [r7, #12]

	return (obj->IdSampAngleFlag);
 8002f10:	68fb      	ldr	r3, [r7, #12]
 8002f12:	8b5b      	ldrh	r3, [r3, #26]
}
 8002f14:	4618      	mov	r0, r3
 8002f16:	3714      	adds	r7, #20
 8002f18:	46bd      	mov	sp, r7
 8002f1a:	f85d 7b04 	ldr.w	r7, [sp], #4
 8002f1e:	4770      	bx	lr

08002f20 <Speed_SetElecTheta>:
// the functions
extern SPEED_Handle Speed_Init(void *pMemory, const size_t numBytes);//! \Mod By Dl.K


static inline void Speed_SetElecTheta(SPEED_Handle handle, float_t theta)//! \Mod By Dl.K
{
 8002f20:	b480      	push	{r7}
 8002f22:	b085      	sub	sp, #20
 8002f24:	af00      	add	r7, sp, #0
 8002f26:	6078      	str	r0, [r7, #4]
 8002f28:	ed87 0a00 	vstr	s0, [r7]
	SPEED_Obj *obj = (SPEED_Obj *)handle;
 8002f2c:	687b      	ldr	r3, [r7, #4]
 8002f2e:	60fb      	str	r3, [r7, #12]

	obj->ElecTheta = theta;
 8002f30:	68fb      	ldr	r3, [r7, #12]
 8002f32:	683a      	ldr	r2, [r7, #0]
 8002f34:	601a      	str	r2, [r3, #0]

	return;
 8002f36:	bf00      	nop
}
 8002f38:	3714      	adds	r7, #20
 8002f3a:	46bd      	mov	sp, r7
 8002f3c:	f85d 7b04 	ldr.w	r7, [sp], #4
 8002f40:	4770      	bx	lr
 8002f42:	bf00      	nop

08002f44 <Speed_SetElecFilterSpeedRatio>:

static inline void Speed_SetElecFilterSpeedRatio(SPEED_Handle handle, float_t ratio)//! \Mod By Dl.K
{
 8002f44:	b480      	push	{r7}
 8002f46:	b085      	sub	sp, #20
 8002f48:	af00      	add	r7, sp, #0
 8002f4a:	6078      	str	r0, [r7, #4]
 8002f4c:	ed87 0a00 	vstr	s0, [r7]
	SPEED_Obj *obj = (SPEED_Obj *)handle;
 8002f50:	687b      	ldr	r3, [r7, #4]
 8002f52:	60fb      	str	r3, [r7, #12]

	obj->ElecFilterSpeedRatio = ratio;
 8002f54:	68fb      	ldr	r3, [r7, #12]
 8002f56:	683a      	ldr	r2, [r7, #0]
 8002f58:	615a      	str	r2, [r3, #20]

	return;
 8002f5a:	bf00      	nop
}
 8002f5c:	3714      	adds	r7, #20
 8002f5e:	46bd      	mov	sp, r7
 8002f60:	f85d 7b04 	ldr.w	r7, [sp], #4
 8002f64:	4770      	bx	lr
 8002f66:	bf00      	nop

08002f68 <Speed_SetElecThetaChagTimeRatio>:

static inline void Speed_SetElecThetaChagTimeRatio(SPEED_Handle handle, float_t ratio)//! \Mod By Dl.K
{
 8002f68:	b480      	push	{r7}
 8002f6a:	b085      	sub	sp, #20
 8002f6c:	af00      	add	r7, sp, #0
 8002f6e:	6078      	str	r0, [r7, #4]
 8002f70:	ed87 0a00 	vstr	s0, [r7]
	SPEED_Obj *obj = (SPEED_Obj *)handle;
 8002f74:	687b      	ldr	r3, [r7, #4]
 8002f76:	60fb      	str	r3, [r7, #12]

	obj->ElecThetaChagTimeRatio = ratio;
 8002f78:	68fb      	ldr	r3, [r7, #12]
 8002f7a:	683a      	ldr	r2, [r7, #0]
 8002f7c:	609a      	str	r2, [r3, #8]

	return;
 8002f7e:	bf00      	nop
}
 8002f80:	3714      	adds	r7, #20
 8002f82:	46bd      	mov	sp, r7
 8002f84:	f85d 7b04 	ldr.w	r7, [sp], #4
 8002f88:	4770      	bx	lr
 8002f8a:	bf00      	nop

08002f8c <Speed_UpdateElecTheta>:

static inline void Speed_UpdateElecTheta(SPEED_Handle handle)//! \Mod By Dl.K
{
 8002f8c:	b480      	push	{r7}
 8002f8e:	b085      	sub	sp, #20
 8002f90:	af00      	add	r7, sp, #0
 8002f92:	6078      	str	r0, [r7, #4]
	SPEED_Obj *obj = (SPEED_Obj *)handle;
 8002f94:	687b      	ldr	r3, [r7, #4]
 8002f96:	60fb      	str	r3, [r7, #12]

	obj->OldElecTheta = obj->ElecTheta;
 8002f98:	68fb      	ldr	r3, [r7, #12]
 8002f9a:	681a      	ldr	r2, [r3, #0]
 8002f9c:	68fb      	ldr	r3, [r7, #12]
 8002f9e:	605a      	str	r2, [r3, #4]

	return;
 8002fa0:	bf00      	nop
}
 8002fa2:	3714      	adds	r7, #20
 8002fa4:	46bd      	mov	sp, r7
 8002fa6:	f85d 7b04 	ldr.w	r7, [sp], #4
 8002faa:	4770      	bx	lr

08002fac <Speed_GetElecSpeed>:

	return;
}

static inline float_t Speed_GetElecSpeed(SPEED_Handle handle)//! \Mod By Dl.K
{
 8002fac:	b480      	push	{r7}
 8002fae:	b085      	sub	sp, #20
 8002fb0:	af00      	add	r7, sp, #0
 8002fb2:	6078      	str	r0, [r7, #4]
	SPEED_Obj *obj = (SPEED_Obj *)handle;
 8002fb4:	687b      	ldr	r3, [r7, #4]
 8002fb6:	60fb      	str	r3, [r7, #12]

	return( obj->ElecSpeed );
 8002fb8:	68fb      	ldr	r3, [r7, #12]
 8002fba:	68db      	ldr	r3, [r3, #12]
 8002fbc:	ee07 3a90 	vmov	s15, r3
}
 8002fc0:	eeb0 0a67 	vmov.f32	s0, s15
 8002fc4:	3714      	adds	r7, #20
 8002fc6:	46bd      	mov	sp, r7
 8002fc8:	f85d 7b04 	ldr.w	r7, [sp], #4
 8002fcc:	4770      	bx	lr
 8002fce:	bf00      	nop

08002fd0 <HAL_runOffsetEst>:
//!             speed performance of the motor drive.
//! \param[in]  handle    The hardware abstraction layer (HAL) handle
//! \param[in]  pAdcData  The pointer to the ADC data

static inline void HAL_runOffsetEst(HAL_Handle handle,const HAL_AdcData_t *pAdcData)
{
 8002fd0:	b580      	push	{r7, lr}
 8002fd2:	b084      	sub	sp, #16
 8002fd4:	af00      	add	r7, sp, #0
 8002fd6:	6078      	str	r0, [r7, #4]
 8002fd8:	6039      	str	r1, [r7, #0]
  	unsigned char cnt;
  	HAL_Obj *obj = (HAL_Obj *)handle;
 8002fda:	687b      	ldr	r3, [r7, #4]
 8002fdc:	60bb      	str	r3, [r7, #8]


  // estimate the current offsets
  	for(cnt=0;cnt<obj->numCurrentSensors;cnt++)
 8002fde:	2300      	movs	r3, #0
 8002fe0:	73fb      	strb	r3, [r7, #15]
 8002fe2:	e011      	b.n	8003008 <HAL_runOffsetEst+0x38>
    {
      	OFFSET_run(obj->offsetHandle_I[cnt],pAdcData->I.value[cnt]);
 8002fe4:	7bfa      	ldrb	r2, [r7, #15]
 8002fe6:	68bb      	ldr	r3, [r7, #8]
 8002fe8:	f853 1022 	ldr.w	r1, [r3, r2, lsl #2]
 8002fec:	7bfb      	ldrb	r3, [r7, #15]
 8002fee:	683a      	ldr	r2, [r7, #0]
 8002ff0:	009b      	lsls	r3, r3, #2
 8002ff2:	4413      	add	r3, r2
 8002ff4:	edd3 7a00 	vldr	s15, [r3]
 8002ff8:	4608      	mov	r0, r1
 8002ffa:	eeb0 0a67 	vmov.f32	s0, s15
 8002ffe:	f7ff fb75 	bl	80026ec <OFFSET_run>
  	unsigned char cnt;
  	HAL_Obj *obj = (HAL_Obj *)handle;


  // estimate the current offsets
  	for(cnt=0;cnt<obj->numCurrentSensors;cnt++)
 8003002:	7bfb      	ldrb	r3, [r7, #15]
 8003004:	3301      	adds	r3, #1
 8003006:	73fb      	strb	r3, [r7, #15]
 8003008:	68bb      	ldr	r3, [r7, #8]
 800300a:	f893 3100 	ldrb.w	r3, [r3, #256]	; 0x100
 800300e:	7bfa      	ldrb	r2, [r7, #15]
 8003010:	429a      	cmp	r2, r3
 8003012:	d3e7      	bcc.n	8002fe4 <HAL_runOffsetEst+0x14>
      	OFFSET_run(obj->offsetHandle_I[cnt],pAdcData->I.value[cnt]);
    }


  // estimate the voltage offsets
  	for(cnt=0;cnt<obj->numVoltageSensors;cnt++)
 8003014:	2300      	movs	r3, #0
 8003016:	73fb      	strb	r3, [r7, #15]
 8003018:	e014      	b.n	8003044 <HAL_runOffsetEst+0x74>
    {
    	OFFSET_run(obj->offsetHandle_V[cnt],pAdcData->V.value[cnt]);
 800301a:	7bfb      	ldrb	r3, [r7, #15]
 800301c:	68ba      	ldr	r2, [r7, #8]
 800301e:	331a      	adds	r3, #26
 8003020:	009b      	lsls	r3, r3, #2
 8003022:	4413      	add	r3, r2
 8003024:	6859      	ldr	r1, [r3, #4]
 8003026:	7bfb      	ldrb	r3, [r7, #15]
 8003028:	683a      	ldr	r2, [r7, #0]
 800302a:	3302      	adds	r3, #2
 800302c:	009b      	lsls	r3, r3, #2
 800302e:	4413      	add	r3, r2
 8003030:	edd3 7a01 	vldr	s15, [r3, #4]
 8003034:	4608      	mov	r0, r1
 8003036:	eeb0 0a67 	vmov.f32	s0, s15
 800303a:	f7ff fb57 	bl	80026ec <OFFSET_run>
      	OFFSET_run(obj->offsetHandle_I[cnt],pAdcData->I.value[cnt]);
    }


  // estimate the voltage offsets
  	for(cnt=0;cnt<obj->numVoltageSensors;cnt++)
 800303e:	7bfb      	ldrb	r3, [r7, #15]
 8003040:	3301      	adds	r3, #1
 8003042:	73fb      	strb	r3, [r7, #15]
 8003044:	68bb      	ldr	r3, [r7, #8]
 8003046:	f893 3101 	ldrb.w	r3, [r3, #257]	; 0x101
 800304a:	7bfa      	ldrb	r2, [r7, #15]
 800304c:	429a      	cmp	r2, r3
 800304e:	d3e4      	bcc.n	800301a <HAL_runOffsetEst+0x4a>
    {
    	OFFSET_run(obj->offsetHandle_V[cnt],pAdcData->V.value[cnt]);
    }

  	return;
 8003050:	bf00      	nop
} // end of HAL_runOffsetEst() function
 8003052:	3710      	adds	r7, #16
 8003054:	46bd      	mov	sp, r7
 8003056:	bd80      	pop	{r7, pc}

08003058 <CTRL_getCount_isr>:

//! \brief      Gets the isr count
//! \param[in]  handle  The controller (CTRL) handle
//! \return    The isr count
static inline uint_least16_t CTRL_getCount_isr(CTRL_Handle handle)//! \Mod By Dl.K
{
 8003058:	b480      	push	{r7}
 800305a:	b085      	sub	sp, #20
 800305c:	af00      	add	r7, sp, #0
 800305e:	6078      	str	r0, [r7, #4]
  CTRL_Obj *obj = (CTRL_Obj *)handle;
 8003060:	687b      	ldr	r3, [r7, #4]
 8003062:	60fb      	str	r3, [r7, #12]

  return(obj->counter_isr);
 8003064:	68fb      	ldr	r3, [r7, #12]
 8003066:	f8b3 31ee 	ldrh.w	r3, [r3, #494]	; 0x1ee
} // end of CTRL_getCount_isr() function
 800306a:	4618      	mov	r0, r3
 800306c:	3714      	adds	r7, #20
 800306e:	46bd      	mov	sp, r7
 8003070:	f85d 7b04 	ldr.w	r7, [sp], #4
 8003074:	4770      	bx	lr
 8003076:	bf00      	nop

08003078 <CTRL_getFlag_enableCurrentCtrl>:

//! \brief     Gets the enable current controllers flag value from the controller
//! \param[in] handle  The controller (CTRL) handle
//! \return    The enable current controller flag value
static inline bool CTRL_getFlag_enableCurrentCtrl(CTRL_Handle handle)//! \Mod By Dl.K
{
 8003078:	b480      	push	{r7}
 800307a:	b085      	sub	sp, #20
 800307c:	af00      	add	r7, sp, #0
 800307e:	6078      	str	r0, [r7, #4]
  CTRL_Obj *obj = (CTRL_Obj *)handle;
 8003080:	687b      	ldr	r3, [r7, #4]
 8003082:	60fb      	str	r3, [r7, #12]

  return(obj->flag_enableCurrentCtrl);
 8003084:	68fb      	ldr	r3, [r7, #12]
 8003086:	f893 3220 	ldrb.w	r3, [r3, #544]	; 0x220
} // end of CTRL_getFlag_enableCurrentCtrl() function
 800308a:	4618      	mov	r0, r3
 800308c:	3714      	adds	r7, #20
 800308e:	46bd      	mov	sp, r7
 8003090:	f85d 7b04 	ldr.w	r7, [sp], #4
 8003094:	4770      	bx	lr
 8003096:	bf00      	nop

08003098 <CTRL_getFlag_enableSpeedCtrl>:

//! \brief     Gets the enable speed control flag value from the controller
//! \param[in] handle  The controller (CTRL) handle
//! \return    The enable speed control flag value
static inline bool CTRL_getFlag_enableSpeedCtrl(CTRL_Handle handle)//! \Mod By Dl.K
{
 8003098:	b480      	push	{r7}
 800309a:	b085      	sub	sp, #20
 800309c:	af00      	add	r7, sp, #0
 800309e:	6078      	str	r0, [r7, #4]
  CTRL_Obj *obj = (CTRL_Obj *)handle;
 80030a0:	687b      	ldr	r3, [r7, #4]
 80030a2:	60fb      	str	r3, [r7, #12]

  return(obj->flag_enableSpeedCtrl);
 80030a4:	68fb      	ldr	r3, [r7, #12]
 80030a6:	f893 31f8 	ldrb.w	r3, [r3, #504]	; 0x1f8
} // end of CTRL_getFlag_enableSpeedCtrl() function
 80030aa:	4618      	mov	r0, r3
 80030ac:	3714      	adds	r7, #20
 80030ae:	46bd      	mov	sp, r7
 80030b0:	f85d 7b04 	ldr.w	r7, [sp], #4
 80030b4:	4770      	bx	lr
 80030b6:	bf00      	nop

080030b8 <CTRL_getIab_in_addr>:

//! \brief     Gets the alpha/beta current input vector memory address from the controller
//! \param[in] handle  The controller (CTRL) handle
//! \return    The alpha/beta current input vector memory address
static inline MATH_vec2 *CTRL_getIab_in_addr(CTRL_Handle handle)//! \Mod By Dl.K
{
 80030b8:	b480      	push	{r7}
 80030ba:	b085      	sub	sp, #20
 80030bc:	af00      	add	r7, sp, #0
 80030be:	6078      	str	r0, [r7, #4]
  CTRL_Obj *obj = (CTRL_Obj *)handle;
 80030c0:	687b      	ldr	r3, [r7, #4]
 80030c2:	60fb      	str	r3, [r7, #12]

  return(&(obj->Iab_in));
 80030c4:	68fb      	ldr	r3, [r7, #12]
 80030c6:	f503 73b4 	add.w	r3, r3, #360	; 0x168
} // end of CTRL_getIab_in_addr() function
 80030ca:	4618      	mov	r0, r3
 80030cc:	3714      	adds	r7, #20
 80030ce:	46bd      	mov	sp, r7
 80030d0:	f85d 7b04 	ldr.w	r7, [sp], #4
 80030d4:	4770      	bx	lr
 80030d6:	bf00      	nop

080030d8 <CTRL_getId_in_pu>:

//! \brief     Gets the direct current input value from the controller
//! \param[in] handle  The controller (CTRL) handle
//! \return    The direct current input value, pu
static inline float_t CTRL_getId_in_pu(CTRL_Handle handle)//! \Mod By Dl.K
{
 80030d8:	b480      	push	{r7}
 80030da:	b085      	sub	sp, #20
 80030dc:	af00      	add	r7, sp, #0
 80030de:	6078      	str	r0, [r7, #4]
  CTRL_Obj *obj = (CTRL_Obj *)handle;
 80030e0:	687b      	ldr	r3, [r7, #4]
 80030e2:	60fb      	str	r3, [r7, #12]

  return(obj->Idq_in.value[0]);
 80030e4:	68fb      	ldr	r3, [r7, #12]
 80030e6:	f8d3 3178 	ldr.w	r3, [r3, #376]	; 0x178
 80030ea:	ee07 3a90 	vmov	s15, r3
} // end of CTRL_getId_in_pu() function
 80030ee:	eeb0 0a67 	vmov.f32	s0, s15
 80030f2:	3714      	adds	r7, #20
 80030f4:	46bd      	mov	sp, r7
 80030f6:	f85d 7b04 	ldr.w	r7, [sp], #4
 80030fa:	4770      	bx	lr

080030fc <CTRL_getId_ref_pu>:

//! \brief     Gets the direct current (Id) reference value from the controller
//! \param[in] handle  The controller (CTRL) handle
//! \return    The direct current reference value, pu
static inline float_t CTRL_getId_ref_pu(CTRL_Handle handle)//! \Mod By Dl.K
{
 80030fc:	b480      	push	{r7}
 80030fe:	b085      	sub	sp, #20
 8003100:	af00      	add	r7, sp, #0
 8003102:	6078      	str	r0, [r7, #4]
  CTRL_Obj *obj = (CTRL_Obj *)handle;
 8003104:	687b      	ldr	r3, [r7, #4]
 8003106:	60fb      	str	r3, [r7, #12]

  return(obj->Idq_ref.value[0]);
 8003108:	68fb      	ldr	r3, [r7, #12]
 800310a:	f8d3 31d8 	ldr.w	r3, [r3, #472]	; 0x1d8
 800310e:	ee07 3a90 	vmov	s15, r3
} // end of CTRL_getId_ref_pu() function
 8003112:	eeb0 0a67 	vmov.f32	s0, s15
 8003116:	3714      	adds	r7, #20
 8003118:	46bd      	mov	sp, r7
 800311a:	f85d 7b04 	ldr.w	r7, [sp], #4
 800311e:	4770      	bx	lr

08003120 <CTRL_getIdq_in_addr>:

//! \brief     Gets the direct/quadrature current input vector memory address from the controller
//! \param[in] handle  The controller (CTRL) handle
//! \return    The direct/quadrature current input vector memory address
static inline MATH_vec2 *CTRL_getIdq_in_addr(CTRL_Handle handle)//! \Mod By Dl.K
{
 8003120:	b480      	push	{r7}
 8003122:	b085      	sub	sp, #20
 8003124:	af00      	add	r7, sp, #0
 8003126:	6078      	str	r0, [r7, #4]
  CTRL_Obj *obj = (CTRL_Obj *)handle;
 8003128:	687b      	ldr	r3, [r7, #4]
 800312a:	60fb      	str	r3, [r7, #12]

  return(&(obj->Idq_in));
 800312c:	68fb      	ldr	r3, [r7, #12]
 800312e:	f503 73bc 	add.w	r3, r3, #376	; 0x178
} // end of CTRL_getIdq_in_addr() function
 8003132:	4618      	mov	r0, r3
 8003134:	3714      	adds	r7, #20
 8003136:	46bd      	mov	sp, r7
 8003138:	f85d 7b04 	ldr.w	r7, [sp], #4
 800313c:	4770      	bx	lr
 800313e:	bf00      	nop

08003140 <CTRL_getIq_in_pu>:

//! \brief     Gets the quadrature current input value from the controller
//! \param[in] handle  The controller (CTRL) handle
//! \return    The quadrature current input value, pu
static inline float_t CTRL_getIq_in_pu(CTRL_Handle handle)//! \Mod By Dl.K
{
 8003140:	b480      	push	{r7}
 8003142:	b085      	sub	sp, #20
 8003144:	af00      	add	r7, sp, #0
 8003146:	6078      	str	r0, [r7, #4]
  CTRL_Obj *obj = (CTRL_Obj *)handle;
 8003148:	687b      	ldr	r3, [r7, #4]
 800314a:	60fb      	str	r3, [r7, #12]

  return(obj->Idq_in.value[1]);
 800314c:	68fb      	ldr	r3, [r7, #12]
 800314e:	f8d3 317c 	ldr.w	r3, [r3, #380]	; 0x17c
 8003152:	ee07 3a90 	vmov	s15, r3
} // end of CTRL_getIq_in_pu() function
 8003156:	eeb0 0a67 	vmov.f32	s0, s15
 800315a:	3714      	adds	r7, #20
 800315c:	46bd      	mov	sp, r7
 800315e:	f85d 7b04 	ldr.w	r7, [sp], #4
 8003162:	4770      	bx	lr

08003164 <CTRL_getIq_ref_pu>:

//! \brief     Gets the quadrature current (Iq) reference value from the controller
//! \param[in] handle  The controller (CTRL) handle
//! \return    The quadrature current reference value, pu
static inline float_t CTRL_getIq_ref_pu(CTRL_Handle handle)//! \Mod By Dl.K
{
 8003164:	b480      	push	{r7}
 8003166:	b085      	sub	sp, #20
 8003168:	af00      	add	r7, sp, #0
 800316a:	6078      	str	r0, [r7, #4]
  CTRL_Obj *obj = (CTRL_Obj *)handle;
 800316c:	687b      	ldr	r3, [r7, #4]
 800316e:	60fb      	str	r3, [r7, #12]

  return(obj->Idq_ref.value[1]);
 8003170:	68fb      	ldr	r3, [r7, #12]
 8003172:	f8d3 31dc 	ldr.w	r3, [r3, #476]	; 0x1dc
 8003176:	ee07 3a90 	vmov	s15, r3
} // end of CTRL_getIq_ref_pu() function
 800317a:	eeb0 0a67 	vmov.f32	s0, s15
 800317e:	3714      	adds	r7, #20
 8003180:	46bd      	mov	sp, r7
 8003182:	f85d 7b04 	ldr.w	r7, [sp], #4
 8003186:	4770      	bx	lr

08003188 <CTRL_getKi>:
//! \brief     Gets the integral gain (Ki) value from the specified controller
//! \param[in] handle    The controller (CTRL) handle
//! \param[in] ctrlType  The controller type
//! \return    The Ki value
static inline float_t CTRL_getKi(CTRL_Handle handle,const CTRL_Type_e ctrlType)//! \Mod By Dl.K
{
 8003188:	b480      	push	{r7}
 800318a:	b085      	sub	sp, #20
 800318c:	af00      	add	r7, sp, #0
 800318e:	6078      	str	r0, [r7, #4]
 8003190:	460b      	mov	r3, r1
 8003192:	70fb      	strb	r3, [r7, #3]
  CTRL_Obj *obj = (CTRL_Obj *)handle;
 8003194:	687b      	ldr	r3, [r7, #4]
 8003196:	60bb      	str	r3, [r7, #8]
  float_t Ki = (0.0f);
 8003198:	f04f 0300 	mov.w	r3, #0
 800319c:	60fb      	str	r3, [r7, #12]

  if(ctrlType == CTRL_Type_PID_spd)
 800319e:	78fb      	ldrb	r3, [r7, #3]
 80031a0:	2b00      	cmp	r3, #0
 80031a2:	d104      	bne.n	80031ae <CTRL_getKi+0x26>
    {
      Ki = obj->Ki_spd;
 80031a4:	68bb      	ldr	r3, [r7, #8]
 80031a6:	f8d3 31bc 	ldr.w	r3, [r3, #444]	; 0x1bc
 80031aa:	60fb      	str	r3, [r7, #12]
 80031ac:	e00e      	b.n	80031cc <CTRL_getKi+0x44>
    }
  else if(ctrlType == CTRL_Type_PID_Id)
 80031ae:	78fb      	ldrb	r3, [r7, #3]
 80031b0:	2b01      	cmp	r3, #1
 80031b2:	d104      	bne.n	80031be <CTRL_getKi+0x36>
    {
      Ki = obj->Ki_Id;
 80031b4:	68bb      	ldr	r3, [r7, #8]
 80031b6:	f8d3 31b4 	ldr.w	r3, [r3, #436]	; 0x1b4
 80031ba:	60fb      	str	r3, [r7, #12]
 80031bc:	e006      	b.n	80031cc <CTRL_getKi+0x44>
    }
  else if(ctrlType == CTRL_Type_PID_Iq)
 80031be:	78fb      	ldrb	r3, [r7, #3]
 80031c0:	2b02      	cmp	r3, #2
 80031c2:	d103      	bne.n	80031cc <CTRL_getKi+0x44>
    {
      Ki = obj->Ki_Iq;
 80031c4:	68bb      	ldr	r3, [r7, #8]
 80031c6:	f8d3 31b8 	ldr.w	r3, [r3, #440]	; 0x1b8
 80031ca:	60fb      	str	r3, [r7, #12]
    }

  return(Ki);
 80031cc:	68fb      	ldr	r3, [r7, #12]
 80031ce:	ee07 3a90 	vmov	s15, r3
} // end of CTRL_getKi() function
 80031d2:	eeb0 0a67 	vmov.f32	s0, s15
 80031d6:	3714      	adds	r7, #20
 80031d8:	46bd      	mov	sp, r7
 80031da:	f85d 7b04 	ldr.w	r7, [sp], #4
 80031de:	4770      	bx	lr

080031e0 <CTRL_getKp>:
//! \brief     Gets the proportional gain (Kp) value from the specified controller
//! \param[in] handle    The controller (CTRL) handle
//! \param[in] ctrlType  The controller type
//! \return    The Kp value
static inline float_t CTRL_getKp(CTRL_Handle handle,const CTRL_Type_e ctrlType)//! \Mod By Dl.K
{
 80031e0:	b480      	push	{r7}
 80031e2:	b085      	sub	sp, #20
 80031e4:	af00      	add	r7, sp, #0
 80031e6:	6078      	str	r0, [r7, #4]
 80031e8:	460b      	mov	r3, r1
 80031ea:	70fb      	strb	r3, [r7, #3]
  CTRL_Obj *obj = (CTRL_Obj *)handle;
 80031ec:	687b      	ldr	r3, [r7, #4]
 80031ee:	60bb      	str	r3, [r7, #8]
  float_t Kp = (0.0f);
 80031f0:	f04f 0300 	mov.w	r3, #0
 80031f4:	60fb      	str	r3, [r7, #12]

  if(ctrlType == CTRL_Type_PID_spd)
 80031f6:	78fb      	ldrb	r3, [r7, #3]
 80031f8:	2b00      	cmp	r3, #0
 80031fa:	d104      	bne.n	8003206 <CTRL_getKp+0x26>
    {
      Kp = obj->Kp_spd;
 80031fc:	68bb      	ldr	r3, [r7, #8]
 80031fe:	f8d3 31b0 	ldr.w	r3, [r3, #432]	; 0x1b0
 8003202:	60fb      	str	r3, [r7, #12]
 8003204:	e00e      	b.n	8003224 <CTRL_getKp+0x44>
    }
  else if(ctrlType == CTRL_Type_PID_Id)
 8003206:	78fb      	ldrb	r3, [r7, #3]
 8003208:	2b01      	cmp	r3, #1
 800320a:	d104      	bne.n	8003216 <CTRL_getKp+0x36>
    {
      Kp = obj->Kp_Id;
 800320c:	68bb      	ldr	r3, [r7, #8]
 800320e:	f8d3 31a8 	ldr.w	r3, [r3, #424]	; 0x1a8
 8003212:	60fb      	str	r3, [r7, #12]
 8003214:	e006      	b.n	8003224 <CTRL_getKp+0x44>
    }
  else if(ctrlType == CTRL_Type_PID_Iq)
 8003216:	78fb      	ldrb	r3, [r7, #3]
 8003218:	2b02      	cmp	r3, #2
 800321a:	d103      	bne.n	8003224 <CTRL_getKp+0x44>
    {
      Kp = obj->Kp_Iq;
 800321c:	68bb      	ldr	r3, [r7, #8]
 800321e:	f8d3 31ac 	ldr.w	r3, [r3, #428]	; 0x1ac
 8003222:	60fb      	str	r3, [r7, #12]
    }

  return(Kp);
 8003224:	68fb      	ldr	r3, [r7, #12]
 8003226:	ee07 3a90 	vmov	s15, r3
} // end of CTRL_getKp() function
 800322a:	eeb0 0a67 	vmov.f32	s0, s15
 800322e:	3714      	adds	r7, #20
 8003230:	46bd      	mov	sp, r7
 8003232:	f85d 7b04 	ldr.w	r7, [sp], #4
 8003236:	4770      	bx	lr

08003238 <CTRL_getNumIsrTicksPerCtrlTick>:

//! \brief     Gets the number of Interrupt Service Routine (ISR) clock ticks per controller clock tick
//! \param[in] handle  The controller (CTRL) handle
//! \return    The number of Interrupt Service Routine (ISR) clock ticks per controller clock tick
static inline uint_least16_t CTRL_getNumIsrTicksPerCtrlTick(CTRL_Handle handle)//! \Mod By Dl.K
{
 8003238:	b480      	push	{r7}
 800323a:	b085      	sub	sp, #20
 800323c:	af00      	add	r7, sp, #0
 800323e:	6078      	str	r0, [r7, #4]
  CTRL_Obj *obj = (CTRL_Obj *)handle;
 8003240:	687b      	ldr	r3, [r7, #4]
 8003242:	60fb      	str	r3, [r7, #12]
  
  return(obj->numIsrTicksPerCtrlTick);
 8003244:	68fb      	ldr	r3, [r7, #12]
 8003246:	f8b3 314c 	ldrh.w	r3, [r3, #332]	; 0x14c
} // end of CTRL_getNumIsrTicksPerCtrlTick() function
 800324a:	4618      	mov	r0, r3
 800324c:	3714      	adds	r7, #20
 800324e:	46bd      	mov	sp, r7
 8003250:	f85d 7b04 	ldr.w	r7, [sp], #4
 8003254:	4770      	bx	lr
 8003256:	bf00      	nop

08003258 <CTRL_getSpd_out_addr>:

//! \brief     Gets the output speed memory address from the controller
//! \param[in] handle    The controller (CTRL) handle
//! \return    The output speed memory address
static inline float_t *CTRL_getSpd_out_addr(CTRL_Handle handle)//! \Mod By Dl.K
{
 8003258:	b480      	push	{r7}
 800325a:	b085      	sub	sp, #20
 800325c:	af00      	add	r7, sp, #0
 800325e:	6078      	str	r0, [r7, #4]
  CTRL_Obj *obj = (CTRL_Obj *)handle;
 8003260:	687b      	ldr	r3, [r7, #4]
 8003262:	60fb      	str	r3, [r7, #12]

  return(&(obj->spd_out));
 8003264:	68fb      	ldr	r3, [r7, #12]
 8003266:	f503 73c4 	add.w	r3, r3, #392	; 0x188
} // end of CTRL_getSpd_out_addr() function
 800326a:	4618      	mov	r0, r3
 800326c:	3714      	adds	r7, #20
 800326e:	46bd      	mov	sp, r7
 8003270:	f85d 7b04 	ldr.w	r7, [sp], #4
 8003274:	4770      	bx	lr
 8003276:	bf00      	nop

08003278 <CTRL_getSpd_out_pu>:

//! \brief     Gets the output speed value from the controller
//! \param[in] handle    The controller (CTRL) handle
//! \return    The output speed value, pu
static inline float_t CTRL_getSpd_out_pu(CTRL_Handle handle)//! \Mod By Dl.K
{
 8003278:	b480      	push	{r7}
 800327a:	b085      	sub	sp, #20
 800327c:	af00      	add	r7, sp, #0
 800327e:	6078      	str	r0, [r7, #4]
  CTRL_Obj *obj = (CTRL_Obj *)handle;
 8003280:	687b      	ldr	r3, [r7, #4]
 8003282:	60fb      	str	r3, [r7, #12]

  return(obj->spd_out);
 8003284:	68fb      	ldr	r3, [r7, #12]
 8003286:	f8d3 3188 	ldr.w	r3, [r3, #392]	; 0x188
 800328a:	ee07 3a90 	vmov	s15, r3
} // end of CTRL_getSpd_out_pu() function
 800328e:	eeb0 0a67 	vmov.f32	s0, s15
 8003292:	3714      	adds	r7, #20
 8003294:	46bd      	mov	sp, r7
 8003296:	f85d 7b04 	ldr.w	r7, [sp], #4
 800329a:	4770      	bx	lr

0800329c <CTRL_getSpd_ref_pu>:

//! \brief     Gets the output speed reference value from the controller
//! \param[in] handle    The controller (CTRL) handle
//! \return    The output speed reference value, pu
static inline float_t CTRL_getSpd_ref_pu(CTRL_Handle handle)//! \Mod By Dl.K
{
 800329c:	b480      	push	{r7}
 800329e:	b085      	sub	sp, #20
 80032a0:	af00      	add	r7, sp, #0
 80032a2:	6078      	str	r0, [r7, #4]
  CTRL_Obj *obj = (CTRL_Obj *)handle;
 80032a4:	687b      	ldr	r3, [r7, #4]
 80032a6:	60fb      	str	r3, [r7, #12]

  return(obj->spd_ref);
 80032a8:	68fb      	ldr	r3, [r7, #12]
 80032aa:	f8d3 31e4 	ldr.w	r3, [r3, #484]	; 0x1e4
 80032ae:	ee07 3a90 	vmov	s15, r3
} // end of CTRL_getSpd_ref_pu() function
 80032b2:	eeb0 0a67 	vmov.f32	s0, s15
 80032b6:	3714      	adds	r7, #20
 80032b8:	46bd      	mov	sp, r7
 80032ba:	f85d 7b04 	ldr.w	r7, [sp], #4
 80032be:	4770      	bx	lr

080032c0 <CTRL_getState>:

//! \brief     Gets the controller state
//! \param[in] handle  The controller (CTRL) handle
//! \return    The controller state
static inline CTRL_State_e CTRL_getState(CTRL_Handle handle)//! \Mod By Dl.K
{
 80032c0:	b480      	push	{r7}
 80032c2:	b085      	sub	sp, #20
 80032c4:	af00      	add	r7, sp, #0
 80032c6:	6078      	str	r0, [r7, #4]
  CTRL_Obj *obj = (CTRL_Obj *)handle;
 80032c8:	687b      	ldr	r3, [r7, #4]
 80032ca:	60fb      	str	r3, [r7, #12]

  return(obj->state);
 80032cc:	68fb      	ldr	r3, [r7, #12]
 80032ce:	7a1b      	ldrb	r3, [r3, #8]
} // end of CTRL_getState() function
 80032d0:	4618      	mov	r0, r3
 80032d2:	3714      	adds	r7, #20
 80032d4:	46bd      	mov	sp, r7
 80032d6:	f85d 7b04 	ldr.w	r7, [sp], #4
 80032da:	4770      	bx	lr

080032dc <CTRL_getVab_out_addr>:

//! \brief     Gets the alpha/beta voltage output vector memory address from the controller
//! \param[in] handle  The controller (CTRL) handle
//! \return    The alpha/beta voltage output vector memory address
static inline MATH_vec2 *CTRL_getVab_out_addr(CTRL_Handle handle)//! \Mod By Dl.K
{
 80032dc:	b480      	push	{r7}
 80032de:	b085      	sub	sp, #20
 80032e0:	af00      	add	r7, sp, #0
 80032e2:	6078      	str	r0, [r7, #4]
  CTRL_Obj *obj = (CTRL_Obj *)handle;
 80032e4:	687b      	ldr	r3, [r7, #4]
 80032e6:	60fb      	str	r3, [r7, #12]

  return(&(obj->Vab_out));
 80032e8:	68fb      	ldr	r3, [r7, #12]
 80032ea:	f503 73c6 	add.w	r3, r3, #396	; 0x18c
} // end of CTRL_getVab_out_addr() function
 80032ee:	4618      	mov	r0, r3
 80032f0:	3714      	adds	r7, #20
 80032f2:	46bd      	mov	sp, r7
 80032f4:	f85d 7b04 	ldr.w	r7, [sp], #4
 80032f8:	4770      	bx	lr
 80032fa:	bf00      	nop

080032fc <CTRL_getVd_out_addr>:

//! \brief     Gets the direct voltage output value memory address from the controller
//! \param[in] handle  The controller (CTRL) handle
//! \return    The direct voltage output value memory address
static inline float_t *CTRL_getVd_out_addr(CTRL_Handle handle)//! \Mod By Dl.K
{
 80032fc:	b480      	push	{r7}
 80032fe:	b085      	sub	sp, #20
 8003300:	af00      	add	r7, sp, #0
 8003302:	6078      	str	r0, [r7, #4]
  CTRL_Obj *obj = (CTRL_Obj *)handle;
 8003304:	687b      	ldr	r3, [r7, #4]
 8003306:	60fb      	str	r3, [r7, #12]

  return(&(obj->Vdq_out.value[0]));
 8003308:	68fb      	ldr	r3, [r7, #12]
 800330a:	f503 73ca 	add.w	r3, r3, #404	; 0x194
} // end of CTRL_getVd_out_addr() function
 800330e:	4618      	mov	r0, r3
 8003310:	3714      	adds	r7, #20
 8003312:	46bd      	mov	sp, r7
 8003314:	f85d 7b04 	ldr.w	r7, [sp], #4
 8003318:	4770      	bx	lr
 800331a:	bf00      	nop

0800331c <CTRL_getVdq_out_addr>:

//! \brief     Gets the direct/quadrature voltage output vector memory address from the controller
//! \param[in] handle  The controller (CTRL) handle
//! \return    The direct/quadrature voltage output vector memory address
static inline MATH_vec2 *CTRL_getVdq_out_addr(CTRL_Handle handle)//! \Mod By Dl.K
{
 800331c:	b480      	push	{r7}
 800331e:	b085      	sub	sp, #20
 8003320:	af00      	add	r7, sp, #0
 8003322:	6078      	str	r0, [r7, #4]
  CTRL_Obj *obj = (CTRL_Obj *)handle;
 8003324:	687b      	ldr	r3, [r7, #4]
 8003326:	60fb      	str	r3, [r7, #12]

  return(&(obj->Vdq_out));
 8003328:	68fb      	ldr	r3, [r7, #12]
 800332a:	f503 73ca 	add.w	r3, r3, #404	; 0x194
} // end of CTRL_getVdq_out_pu() function
 800332e:	4618      	mov	r0, r3
 8003330:	3714      	adds	r7, #20
 8003332:	46bd      	mov	sp, r7
 8003334:	f85d 7b04 	ldr.w	r7, [sp], #4
 8003338:	4770      	bx	lr
 800333a:	bf00      	nop

0800333c <CTRL_getVq_out_addr>:

//! \brief     Gets the quadrature voltage output value memory address from the controller
//! \param[in] handle  The controller (CTRL) handle
//! \return    The quadrature voltage output value memory address
static inline float_t *CTRL_getVq_out_addr(CTRL_Handle handle)//! \Mod By Dl.K
{
 800333c:	b480      	push	{r7}
 800333e:	b085      	sub	sp, #20
 8003340:	af00      	add	r7, sp, #0
 8003342:	6078      	str	r0, [r7, #4]
  CTRL_Obj *obj = (CTRL_Obj *)handle;
 8003344:	687b      	ldr	r3, [r7, #4]
 8003346:	60fb      	str	r3, [r7, #12]

  return(&(obj->Vdq_out.value[1]));
 8003348:	68fb      	ldr	r3, [r7, #12]
 800334a:	f503 73cc 	add.w	r3, r3, #408	; 0x198
} // end of CTRL_getVq_out_addr() function
 800334e:	4618      	mov	r0, r3
 8003350:	3714      	adds	r7, #20
 8003352:	46bd      	mov	sp, r7
 8003354:	f85d 7b04 	ldr.w	r7, [sp], #4
 8003358:	4770      	bx	lr
 800335a:	bf00      	nop

0800335c <CTRL_getVq_out_pu>:

//! \brief     Gets the quadrature voltage output value from the controller
//! \param[in] handle  The controller (CTRL) handle
//! \return    The quadrature voltage output value, pu
static inline float_t CTRL_getVq_out_pu(CTRL_Handle handle)//! \Mod By Dl.K
{
 800335c:	b480      	push	{r7}
 800335e:	b085      	sub	sp, #20
 8003360:	af00      	add	r7, sp, #0
 8003362:	6078      	str	r0, [r7, #4]
  CTRL_Obj *obj = (CTRL_Obj *)handle;
 8003364:	687b      	ldr	r3, [r7, #4]
 8003366:	60fb      	str	r3, [r7, #12]

  return(obj->Vdq_out.value[1]);
 8003368:	68fb      	ldr	r3, [r7, #12]
 800336a:	f8d3 3198 	ldr.w	r3, [r3, #408]	; 0x198
 800336e:	ee07 3a90 	vmov	s15, r3
} // end of CTRL_getVq_out_pu() function
 8003372:	eeb0 0a67 	vmov.f32	s0, s15
 8003376:	3714      	adds	r7, #20
 8003378:	46bd      	mov	sp, r7
 800337a:	f85d 7b04 	ldr.w	r7, [sp], #4
 800337e:	4770      	bx	lr

08003380 <CTRL_incrCounter_current>:


//! \brief     Increments the current counter
//! \param[in] handle  The controller (CTRL) handle
static inline void CTRL_incrCounter_current(CTRL_Handle handle)//! \Mod By Dl.K
{
 8003380:	b480      	push	{r7}
 8003382:	b085      	sub	sp, #20
 8003384:	af00      	add	r7, sp, #0
 8003386:	6078      	str	r0, [r7, #4]
  CTRL_Obj *obj = (CTRL_Obj *)handle;
 8003388:	687b      	ldr	r3, [r7, #4]
 800338a:	60fb      	str	r3, [r7, #12]

  uint_least16_t count = obj->counter_current;
 800338c:	68fb      	ldr	r3, [r7, #12]
 800338e:	f8b3 31ec 	ldrh.w	r3, [r3, #492]	; 0x1ec
 8003392:	817b      	strh	r3, [r7, #10]

  // increment the count
  count++;
 8003394:	897b      	ldrh	r3, [r7, #10]
 8003396:	3301      	adds	r3, #1
 8003398:	817b      	strh	r3, [r7, #10]

  // save the count value
  obj->counter_current = count;
 800339a:	68fb      	ldr	r3, [r7, #12]
 800339c:	897a      	ldrh	r2, [r7, #10]
 800339e:	f8a3 21ec 	strh.w	r2, [r3, #492]	; 0x1ec

  return;
 80033a2:	bf00      	nop
} // end of CTRL_incrCounter_current() function
 80033a4:	3714      	adds	r7, #20
 80033a6:	46bd      	mov	sp, r7
 80033a8:	f85d 7b04 	ldr.w	r7, [sp], #4
 80033ac:	4770      	bx	lr
 80033ae:	bf00      	nop

080033b0 <CTRL_incrCounter_isr>:


//! \brief     Increments the isr counter
//! \param[in] handle  The controller (CTRL) handle
static inline void CTRL_incrCounter_isr(CTRL_Handle handle)//! \Mod By Dl.K
{
 80033b0:	b480      	push	{r7}
 80033b2:	b085      	sub	sp, #20
 80033b4:	af00      	add	r7, sp, #0
 80033b6:	6078      	str	r0, [r7, #4]
  CTRL_Obj *obj = (CTRL_Obj *)handle;
 80033b8:	687b      	ldr	r3, [r7, #4]
 80033ba:	60fb      	str	r3, [r7, #12]

  uint_least16_t count = obj->counter_isr;
 80033bc:	68fb      	ldr	r3, [r7, #12]
 80033be:	f8b3 31ee 	ldrh.w	r3, [r3, #494]	; 0x1ee
 80033c2:	817b      	strh	r3, [r7, #10]

  // increment the count
  count++;
 80033c4:	897b      	ldrh	r3, [r7, #10]
 80033c6:	3301      	adds	r3, #1
 80033c8:	817b      	strh	r3, [r7, #10]

  // save the count value
  obj->counter_isr = count;
 80033ca:	68fb      	ldr	r3, [r7, #12]
 80033cc:	897a      	ldrh	r2, [r7, #10]
 80033ce:	f8a3 21ee 	strh.w	r2, [r3, #494]	; 0x1ee

  return;
 80033d2:	bf00      	nop
} // end of CTRL_incrCounter_isr() function
 80033d4:	3714      	adds	r7, #20
 80033d6:	46bd      	mov	sp, r7
 80033d8:	f85d 7b04 	ldr.w	r7, [sp], #4
 80033dc:	4770      	bx	lr
 80033de:	bf00      	nop

080033e0 <CTRL_incrCounter_speed>:


//! \brief     Increments the speed counter
//! \param[in] handle  The controller (CTRL) handle
static inline void CTRL_incrCounter_speed(CTRL_Handle handle)//! \Mod By Dl.K
{
 80033e0:	b480      	push	{r7}
 80033e2:	b085      	sub	sp, #20
 80033e4:	af00      	add	r7, sp, #0
 80033e6:	6078      	str	r0, [r7, #4]
  CTRL_Obj *obj = (CTRL_Obj *)handle;
 80033e8:	687b      	ldr	r3, [r7, #4]
 80033ea:	60fb      	str	r3, [r7, #12]

  uint_least16_t count = obj->counter_speed;
 80033ec:	68fb      	ldr	r3, [r7, #12]
 80033ee:	f8b3 31f0 	ldrh.w	r3, [r3, #496]	; 0x1f0
 80033f2:	817b      	strh	r3, [r7, #10]

  // increment the count
  count++;
 80033f4:	897b      	ldrh	r3, [r7, #10]
 80033f6:	3301      	adds	r3, #1
 80033f8:	817b      	strh	r3, [r7, #10]

  // save the count value
  obj->counter_speed = count;
 80033fa:	68fb      	ldr	r3, [r7, #12]
 80033fc:	897a      	ldrh	r2, [r7, #10]
 80033fe:	f8a3 21f0 	strh.w	r2, [r3, #496]	; 0x1f0

  return;
 8003402:	bf00      	nop
} // end of CTRL_incrCounter_speed() function
 8003404:	3714      	adds	r7, #20
 8003406:	46bd      	mov	sp, r7
 8003408:	f85d 7b04 	ldr.w	r7, [sp], #4
 800340c:	4770      	bx	lr
 800340e:	bf00      	nop

08003410 <CTRL_incrCounter_traj>:


//! \brief     Increments the trajectory counter
//! \param[in] handle  The controller (CTRL) handle
static inline void CTRL_incrCounter_traj(CTRL_Handle handle)//! \Mod By Dl.K
{
 8003410:	b480      	push	{r7}
 8003412:	b085      	sub	sp, #20
 8003414:	af00      	add	r7, sp, #0
 8003416:	6078      	str	r0, [r7, #4]
  CTRL_Obj *obj = (CTRL_Obj *)handle;
 8003418:	687b      	ldr	r3, [r7, #4]
 800341a:	60fb      	str	r3, [r7, #12]

  uint_least16_t count = obj->counter_traj;
 800341c:	68fb      	ldr	r3, [r7, #12]
 800341e:	f8b3 31f2 	ldrh.w	r3, [r3, #498]	; 0x1f2
 8003422:	817b      	strh	r3, [r7, #10]

  // increment the count
  count++;
 8003424:	897b      	ldrh	r3, [r7, #10]
 8003426:	3301      	adds	r3, #1
 8003428:	817b      	strh	r3, [r7, #10]

  // save the count value
  obj->counter_traj = count;
 800342a:	68fb      	ldr	r3, [r7, #12]
 800342c:	897a      	ldrh	r2, [r7, #10]
 800342e:	f8a3 21f2 	strh.w	r2, [r3, #498]	; 0x1f2

  return;
 8003432:	bf00      	nop
} // end of CTRL_incrCounter_traj() function
 8003434:	3714      	adds	r7, #20
 8003436:	46bd      	mov	sp, r7
 8003438:	f85d 7b04 	ldr.w	r7, [sp], #4
 800343c:	4770      	bx	lr
 800343e:	bf00      	nop

08003440 <CTRL_resetCounter_current>:


//! \brief     Resets the current counter
//! \param[in] handle  The controller (CTRL) handle
static inline void CTRL_resetCounter_current(CTRL_Handle handle)//! \Mod By Dl.K
{
 8003440:	b480      	push	{r7}
 8003442:	b085      	sub	sp, #20
 8003444:	af00      	add	r7, sp, #0
 8003446:	6078      	str	r0, [r7, #4]
  CTRL_Obj *obj = (CTRL_Obj *)handle;
 8003448:	687b      	ldr	r3, [r7, #4]
 800344a:	60fb      	str	r3, [r7, #12]

  obj->counter_current = 0;
 800344c:	68fb      	ldr	r3, [r7, #12]
 800344e:	2200      	movs	r2, #0
 8003450:	f8a3 21ec 	strh.w	r2, [r3, #492]	; 0x1ec

  return;
 8003454:	bf00      	nop
} // end of CTRL_resetCounter_current() function
 8003456:	3714      	adds	r7, #20
 8003458:	46bd      	mov	sp, r7
 800345a:	f85d 7b04 	ldr.w	r7, [sp], #4
 800345e:	4770      	bx	lr

08003460 <CTRL_resetCounter_isr>:


//! \brief     Resets the isr counter
//! \param[in] handle  The controller (CTRL) handle
static inline void CTRL_resetCounter_isr(CTRL_Handle handle)//! \Mod By Dl.K
{
 8003460:	b480      	push	{r7}
 8003462:	b085      	sub	sp, #20
 8003464:	af00      	add	r7, sp, #0
 8003466:	6078      	str	r0, [r7, #4]
  CTRL_Obj *obj = (CTRL_Obj *)handle;
 8003468:	687b      	ldr	r3, [r7, #4]
 800346a:	60fb      	str	r3, [r7, #12]

  obj->counter_isr = 1;
 800346c:	68fb      	ldr	r3, [r7, #12]
 800346e:	2201      	movs	r2, #1
 8003470:	f8a3 21ee 	strh.w	r2, [r3, #494]	; 0x1ee

  return;
 8003474:	bf00      	nop
} // end of CTRL_resetCounter_isr() function
 8003476:	3714      	adds	r7, #20
 8003478:	46bd      	mov	sp, r7
 800347a:	f85d 7b04 	ldr.w	r7, [sp], #4
